(lp1
(dp2
S'Origin'
p3
S'Western Pacific'
p4
sS'Scientific name'
p5
S'Ablabys taenianotus'
p6
sS'Family'
p7
S'Wasp Fish'
p8
sS'Other identification'
p9
S'Cockatoo Waspfish, Cockatoo Fish, Leaf Fish, Rogue Scorpion, Cockatoo Leaf-Fish, Cuckatoo Waspfish, Rouge Fish'
p10
sS'Size (cm)'
p11
S'15'
p12
sS'Recommended tank size'
p13
S'medium'
p14
sS'Most used common name'
p15
S'<a href="http://saltwater.aqua-fish.net/?cockatoo-waspfish">Cockatoo Waspfish</a>'
p16
sS'Care'
p17
S'not very difficult'
p18
sa(dp19
S'Origin'
p20
S'from East Africa to Micronesia &amp; Japan'
p21
sS'Scientific name'
p22
S'Abudefduf notatus'
p23
sS'Family'
p24
S'Damsel'
p25
sS'Other identification'
p26
S'Yellowtail Sergeant, Dusky Damsel'
p27
sS'Size (cm)'
p28
S'17'
p29
sS'Recommended tank size'
p30
S'medium'
p31
sS'Most used common name'
p32
S'<a href="http://saltwater.aqua-fish.net/?yellowtail-sergeant">Yellowtail Sergeant</a>'
p33
sS'Care'
p34
S'not very difficult'
p35
sa(dp36
S'Origin'
p37
S'Indo-Pacific'
p38
sS'Scientific name'
p39
S'Abudefduf saxatilis'
p40
sS'Family'
p41
S'Damsel'
p42
sS'Other identification'
p43
S'Sergeant Major Damsel, Striped Sergeant, Damsel Fish, Five Finger'
p44
sS'Size (cm)'
p45
S'16'
p46
sS'Recommended tank size'
p47
S'medium'
p48
sS'Most used common name'
p49
S'<a href="http://saltwater.aqua-fish.net/?sergeant-major-damsel">Sergeant Major Damsel</a>'
p50
sS'Care'
p51
S'easy'
p52
sa(dp53
S'Origin'
p54
S'from the Red Sea to Australia and Japan'
p55
sS'Scientific name'
p56
S'Abudefduf sexfasciatus'
p57
sS'Family'
p58
S'Damsel'
p59
sS'Other identification'
p60
S'Scissortail Sergeant, Striptailed Damselfish, Six-Barred Sergeant-Major'
p61
sS'Size (cm)'
p62
S'18'
p63
sS'Recommended tank size'
p64
S'medium'
p65
sS'Most used common name'
p66
S'<a href="http://saltwater.aqua-fish.net/?scissortail-sergeant">Scissortail Sergeant</a>'
p67
sS'Care'
p68
S'not very difficult'
p69
sa(dp70
S'Origin'
p71
S'Indo-Pacific'
p72
sS'Scientific name'
p73
S'Abudefduf sordidus'
p74
sS'Family'
p75
S'Damsel'
p76
sS'Size (cm)'
p77
S'23'
p78
sS'Recommended tank size'
p79
S'medium'
p80
sS'Most used common name'
p81
S'<a href="http://saltwater.aqua-fish.net/?blackspot-sergeant">Blackspot Sergeant</a>'
p82
sS'Care'
p83
S'not very difficult'
p84
sa(dp85
S'Origin'
p86
S'Indo-Pacific'
p87
sS'Scientific name'
p88
S'Abudefduf vaigiensis'
p89
sS'Family'
p90
S'Damsel'
p91
sS'Other identification'
p92
S'Indo-Pacific sergeant, Sergeant major, Five-banded Sergeant-major, Five-banded Damsel-fish'
p93
sS'Size (cm)'
p94
S'20'
p95
sS'Recommended tank size'
p96
S'medium'
p97
sS'Most used common name'
p98
S'<a href="http://saltwater.aqua-fish.net/?indo-pacific-sergeant">Indo-Pacific sergeant</a>'
p99
sS'Care'
p100
S'not very difficult'
p101
sa(dp102
S'Origin'
p103
S'Western Pacific'
p104
sS'Scientific name'
p105
S'Acanthochromis polyacanthus'
p106
sS'Family'
p107
S'Damsel'
p108
sS'Other identification'
p109
S'Spiny Chromis, Spiny Puller'
p110
sS'Size (cm)'
p111
S'14'
p112
sS'Recommended tank size'
p113
S'medium'
p114
sS'Most used common name'
p115
S'<a href="http://saltwater.aqua-fish.net/?spiny-chromis">Spiny Chromis</a>'
p116
sS'Care'
p117
S'easy'
p118
sa(dp119
S'Origin'
p120
S'Western Pacific'
p121
sS'Scientific name'
p122
S'Acanthurus achilles'
p123
sS'Family'
p124
S'Tang'
p125
sS'Size (cm)'
p126
S'25'
p127
sS'Recommended tank size'
p128
S'very large'
p129
sS'Most used common name'
p130
S'<a href="http://saltwater.aqua-fish.net/?achilles-tang">Achilles Tang</a>'
p131
sS'Care'
p132
S'difficult'
p133
sa(dp134
S'Origin'
p135
S'Western Atlantic'
p136
sS'Scientific name'
p137
S'Acanthurus bahianus'
p138
sS'Family'
p139
S'Tang'
p140
sS'Size (cm)'
p141
S'38'
p142
sS'Recommended tank size'
p143
S'large'
p144
sS'Most used common name'
p145
S'<a href="http://saltwater.aqua-fish.net/?ocean-surgeon">Ocean Surgeon</a>'
p146
sS'Care'
p147
S'not very difficult'
p148
sa(dp149
S'Origin'
p150
S'from East Africa to the Hawaiian Islands'
p151
sS'Scientific name'
p152
S'Acanthurus blochii'
p153
sS'Family'
p154
S'Tang'
p155
sS'Other identification'
p156
S'Dark Surgeon, Ringtail Surgeonfish'
p157
sS'Size (cm)'
p158
S'45'
p159
sS'Recommended tank size'
p160
S'very large'
p161
sS'Most used common name'
p162
S'<a href="http://saltwater.aqua-fish.net/?dark-surgeon">Dark Surgeon</a>'
p163
sS'Care'
p164
S'not very difficult'
p165
sa(dp166
S'Origin'
p167
S'Western Atlantic'
p168
sS'Scientific name'
p169
S'Acanthurus chirurgus'
p170
sS'Family'
p171
S'Tang'
p172
sS'Other identification'
p173
S'Doctorfish, Black Doctorfish'
p174
sS'Size (cm)'
p175
S'40'
p176
sS'Recommended tank size'
p177
S'large'
p178
sS'Most used common name'
p179
S'<a href="http://saltwater.aqua-fish.net/?doctorfish">Doctorfish</a>'
p180
sS'Care'
p181
S'easy'
p182
sa(dp183
S'Origin'
p184
S'Caribbean'
p185
sS'Scientific name'
p186
S'Acanthurus coeruleus'
p187
sS'Family'
p188
S'Tang'
p189
sS'Other identification'
p190
S'Atlantic Blue Juvenile, Yellow Juvenile Coloration, Juvenile Atlantic Blue Tang'
p191
sS'Size (cm)'
p192
S'30'
p193
sS'Recommended tank size'
p194
S'large'
p195
sS'Most used common name'
p196
S'<a href="http://saltwater.aqua-fish.net/?atlantic-blue-juvenile">Atlantic Blue Juvenile</a>'
p197
sS'Care'
p198
S'not very difficult'
p199
sa(dp200
S'Origin'
p201
S'Indo-Pacific'
p202
sS'Scientific name'
p203
S'Acanthurus dussumieri'
p204
sS'Family'
p205
S'Tang'
p206
sS'Other identification'
p207
S"Eyestripe Surgeonfish, Dussumier's Surgeonfish, Hawaiian Surgeonfish, Ornate Sturgeonfish"
p208
sS'Size (cm)'
p209
S'54'
p210
sS'Recommended tank size'
p211
S'very large'
p212
sS'Most used common name'
p213
S'<a href="http://saltwater.aqua-fish.net/?eyestripe-surgeonfish">Eyestripe Surgeonfish</a>'
p214
sS'Care'
p215
S'difficult'
p216
sa(dp217
S'Origin'
p218
S'Indo-West Pacific'
p219
sS'Scientific name'
p220
S'Acanthurus japonicus'
p221
sS'Family'
p222
S'Tang'
p223
sS'Other identification'
p224
S'Japan Surgeonfish, White-nose Surgeonfish, Powder Brown Tang'
p225
sS'Size (cm)'
p226
S'18'
p227
sS'Recommended tank size'
p228
S'medium'
p229
sS'Most used common name'
p230
S'<a href="http://saltwater.aqua-fish.net/?japan-surgeonfish">Japan Surgeonfish</a>'
p231
sS'Care'
p232
S'easy'
p233
sa(dp234
S'Origin'
p235
S'Maldives, Sri Lanka'
p236
sS'Scientific name'
p237
S'Acanthurus leucosternon'
p238
sS'Family'
p239
S'Tang'
p240
sS'Other identification'
p241
S'Powder Blue Tang, Powder Blue Surgeon'
p242
sS'Size (cm)'
p243
S'26'
p244
sS'Recommended tank size'
p245
S'large'
p246
sS'Most used common name'
p247
S'<a href="http://saltwater.aqua-fish.net/?powder-blue-tang">Powder Blue Tang</a>'
p248
sS'Care'
p249
S'difficult'
p250
sa(dp251
S'Origin'
p252
S'Maldives, Sri Lanka'
p253
sS'Scientific name'
p254
S'Acanthurus lineatus'
p255
sS'Family'
p256
S'Tang'
p257
sS'Size (cm)'
p258
S'38'
p259
sS'Recommended tank size'
p260
S'very large'
p261
sS'Most used common name'
p262
S'<a href="http://saltwater.aqua-fish.net/?clown-tang">Clown Tang</a>'
p263
sS'Care'
p264
S'not very difficult'
p265
sa(dp266
S'Origin'
p267
S'West Africa'
p268
sS'Scientific name'
p269
S'Acanthurus monroviae'
p270
sS'Family'
p271
S'Tang'
p272
sS'Size (cm)'
p273
S'45'
p274
sS'Recommended tank size'
p275
S'very large'
p276
sS'Most used common name'
p277
S'<a href="http://saltwater.aqua-fish.net/?monrovia-doctorfish">Monrovia Doctorfish</a>'
p278
sS'Care'
p279
S'not very difficult'
p280
sa(dp281
S'Origin'
p282
S'Eastern Indian Ocean'
p283
sS'Scientific name'
p284
S'Acanthurus nigricans'
p285
sS'Family'
p286
S'Tang'
p287
sS'Other identification'
p288
S'White Cheek Tang, Whitecheek Surgeonfish'
p289
sS'Size (cm)'
p290
S'22'
p291
sS'Recommended tank size'
p292
S'large'
p293
sS'Most used common name'
p294
S'<a href="http://saltwater.aqua-fish.net/?white-cheek-tang">White Cheek Tang</a>'
p295
sS'Care'
p296
S'difficult'
p297
sa(dp298
S'Origin'
p299
S'Fiji, Hawaii'
p300
sS'Scientific name'
p301
S'Acanthurus olivaceus'
p302
sS'Family'
p303
S'Tang'
p304
sS'Size (cm)'
p305
S'36'
p306
sS'Recommended tank size'
p307
S'large'
p308
sS'Most used common name'
p309
S'<a href="http://saltwater.aqua-fish.net/?orange-shoulder-tang">Orange Shoulder Tang</a>'
p310
sS'Care'
p311
S'not very difficult'
p312
sa(dp313
S'Origin'
p314
S'Indo-Pacific'
p315
sS'Scientific name'
p316
S'Acanthurus pyroferus'
p317
sS'Family'
p318
S'Tang'
p319
sS'Other identification'
p320
S'Eiblii Mimic Tang, Chocolate Surgeonfish'
p321
sS'Size (cm)'
p322
S'15'
p323
sS'Recommended tank size'
p324
S'large'
p325
sS'Most used common name'
p326
S'<a href="http://saltwater.aqua-fish.net/?eiblii-mimic-tang">Eiblii Mimic Tang</a>'
p327
sS'Care'
p328
S'not very difficult'
p329
sa(dp330
S'Origin'
p331
S'Western Indian Ocean'
p332
sS'Scientific name'
p333
S'Acanthurus sohal'
p334
sS'Family'
p335
S'Tang'
p336
sS'Size (cm)'
p337
S'40'
p338
sS'Recommended tank size'
p339
S'very large'
p340
sS'Most used common name'
p341
S'<a href="http://saltwater.aqua-fish.net/?sohal-surgeonfish">Sohal Surgeonfish</a>'
p342
sS'Care'
p343
S'not very difficult'
p344
sa(dp345
S'Origin'
p346
S'Tahiti'
p347
sS'Scientific name'
p348
S'Acanthurus triostegus'
p349
sS'Family'
p350
S'Tang'
p351
sS'Size (cm)'
p352
S'28'
p353
sS'Recommended tank size'
p354
S'large'
p355
sS'Most used common name'
p356
S'<a href="http://saltwater.aqua-fish.net/?convict-tang">Convict Tang</a>'
p357
sS'Care'
p358
S'not very difficult'
p359
sa(dp360
S'Origin'
p361
S'Indo-Pacific'
p362
sS'Scientific name'
p363
S'Acanthurus xanthopterus'
p364
sS'Family'
p365
S'Tang'
p366
sS'Other identification'
p367
S"Cuvier's Surgeonfish, Purple Surgeonfish, Ring-Tailed Surgeonfish, Yellowfin Surgeonfish"
p368
sS'Size (cm)'
p369
S'60'
p370
sS'Recommended tank size'
p371
S'very large'
p372
sS'Most used common name'
p373
S'<a href="http://saltwater.aqua-fish.net/?purple-surgeonfish">Purple Surgeonfish</a>'
p374
sS'Care'
p375
S'not very difficult'
p376
sa(dp377
S'Origin'
p378
S'Indo-West Pacific'
p379
sS'Scientific name'
p380
S'Aeoliscus strigatus'
p381
sS'Family'
p382
S'Shrimpfish'
p383
sS'Other identification'
p384
S'Razorfish, Coral Razor Fish'
p385
sS'Size (cm)'
p386
S'14'
p387
sS'Recommended tank size'
p388
S'medium'
p389
sS'Most used common name'
p390
S'<a href="http://saltwater.aqua-fish.net/?razorfish">Razorfish</a>'
p391
sS'Care'
p392
S'not very difficult'
p393
sa(dp394
S'Origin'
p395
S'Indo-Pacific'
p396
sS'Scientific name'
p397
S'Alectis indicus'
p398
sS'Family'
p399
S'Jacks and Pompanos'
p400
sS'Other identification'
p401
S'Indian Threadfish, Diamond Trevally, Mirror Fish'
p402
sS'Size (cm)'
p403
S'165'
p404
sS'Recommended tank size'
p405
S'very large'
p406
sS'Most used common name'
p407
S'<a href="http://saltwater.aqua-fish.net/?indian-threadfish">Indian Threadfish</a>'
p408
sS'Care'
p409
S'difficult'
p410
sa(dp411
S'Origin'
p412
S'Indo-West Pacific'
p413
sS'Scientific name'
p414
S'Allenbatrachus grunniens'
p415
sS'Family'
p416
S'Toadfish'
p417
sS'Size (cm)'
p418
S'30'
p419
sS'Recommended tank size'
p420
S'large'
p421
sS'Most used common name'
p422
S'<a href="http://saltwater.aqua-fish.net/?grunting-toadfish">Grunting Toadfish</a>'
p423
sS'Care'
p424
S'not very difficult'
p425
sa(dp426
S'Origin'
p427
S'almost everywhere in tropical waters'
p428
sS'Scientific name'
p429
S'Aluterus scriptus'
p430
sS'Family'
p431
S'Filefish'
p432
sS'Size (cm)'
p433
S'110'
p434
sS'Recommended tank size'
p435
S'very large'
p436
sS'Most used common name'
p437
S'<a href="http://saltwater.aqua-fish.net/?scrawled-filefish">Scrawled Filefish</a>'
p438
sS'Care'
p439
S'not very difficult'
p440
sa(dp441
S'Origin'
p442
S'Indo-West Pacific'
p443
sS'Scientific name'
p444
S'Amblyeleotris periophthalma'
p445
sS'Family'
p446
S'Goby'
p447
sS'Size (cm)'
p448
S'11'
p449
sS'Recommended tank size'
p450
S'medium'
p451
sS'Most used common name'
p452
S'<a href="http://saltwater.aqua-fish.net/?periophthalma-prawn-goby">Periophthalma Prawn-Goby</a>'
p453
sS'Care'
p454
S'easy'
p455
sa(dp456
S'Origin'
p457
S'Western Pacific'
p458
sS'Scientific name'
p459
S'Amblyglyphidodon aureus'
p460
sS'Family'
p461
S'Damsel'
p462
sS'Other identification'
p463
S'Yellow Damsel, Lemon Damsel, Lemonpeel Damsel'
p464
sS'Size (cm)'
p465
S'10'
p466
sS'Recommended tank size'
p467
S'medium'
p468
sS'Most used common name'
p469
S'<a href="http://saltwater.aqua-fish.net/?yellow-damsel">Yellow Damsel</a>'
p470
sS'Care'
p471
S'easy'
p472
sa(dp473
S'Origin'
p474
S'Indo-West Pacific'
p475
sS'Scientific name'
p476
S'Amblygobius albimaculatus'
p477
sS'Family'
p478
S'Goby'
p479
sS'Size (cm)'
p480
S'18'
p481
sS'Recommended tank size'
p482
S'medium'
p483
sS'Most used common name'
p484
S'<a href="http://saltwater.aqua-fish.net/?butterfly-goby">Butterfly Goby</a>'
p485
sS'Care'
p486
S'not very difficult'
p487
sa(dp488
S'Origin'
p489
S'Indo-Pacific'
p490
sS'Scientific name'
p491
S'Amblygobius bynoensis'
p492
sS'Family'
p493
S'Goby'
p494
sS'Size (cm)'
p495
S'10'
p496
sS'Recommended tank size'
p497
S'medium'
p498
sS'Most used common name'
p499
S'<a href="http://saltwater.aqua-fish.net/?byno-goby">Byno Goby</a>'
p500
sS'Care'
p501
S'not very difficult'
p502
sa(dp503
S'Origin'
p504
S'Western Pacific'
p505
sS'Scientific name'
p506
S'Amblygobius rainfordi'
p507
sS'Family'
p508
S'Goby'
p509
sS'Other identification'
p510
S"Rainford's Goby, Old Glory"
p511
sS'Size (cm)'
p512
S'8'
sS'Recommended tank size'
p513
S'medium'
p514
sS'Most used common name'
p515
S'<a href="http://saltwater.aqua-fish.net/?rainford-goby">Rainford\'s Goby</a>'
p516
sS'Care'
p517
S'easy'
p518
sa(dp519
S'Origin'
p520
S'Western Pacific'
p521
sS'Scientific name'
p522
S'Amphiprion akindynos'
p523
sS'Family'
p524
S'Damsel'
p525
sS'Size (cm)'
p526
S'10'
p527
sS'Recommended tank size'
p528
S'medium'
p529
sS'Most used common name'
p530
S'<a href="http://saltwater.aqua-fish.net/?barrier-reef-anemonefish">Barrier Reef Anemonefish</a>'
p531
sS'Care'
p532
S'easy'
p533
sa(dp534
S'Origin'
p535
S'Western Indian Ocean'
p536
sS'Scientific name'
p537
S'Amphiprion bicinctus'
p538
sS'Family'
p539
S'Damsel'
p540
sS'Size (cm)'
p541
S'14'
p542
sS'Recommended tank size'
p543
S'medium'
p544
sS'Most used common name'
p545
S'<a href="http://saltwater.aqua-fish.net/?twoband-anemonefish">Twoband Anemonefish</a>'
p546
sS'Care'
p547
S'easy'
p548
sa(dp549
S'Origin'
p550
S'Western Indian Ocean'
p551
sS'Scientific name'
p552
S'Amphiprion chrysogaster'
p553
sS'Family'
p554
S'Damsel'
p555
sS'Size (cm)'
p556
S'15'
p557
sS'Recommended tank size'
p558
S'medium'
p559
sS'Most used common name'
p560
S'<a href="http://saltwater.aqua-fish.net/?mauritian-anemonefish">Mauritian Anemonefish</a>'
p561
sS'Care'
p562
S'easy'
p563
sa(dp564
S'Origin'
p565
S'Western Pacific'
p566
sS'Scientific name'
p567
S'Amphiprion chrysopterus'
p568
sS'Family'
p569
S'Damsel'
p570
sS'Size (cm)'
p571
S'17'
p572
sS'Recommended tank size'
p573
S'large'
p574
sS'Most used common name'
p575
S'<a href="http://saltwater.aqua-fish.net/?orange-fin-anemonefish">Orange-Fin Anemonefish</a>'
p576
sS'Care'
p577
S'easy'
p578
sa(dp579
S'Origin'
p580
S'Indo-Pacific'
p581
sS'Scientific name'
p582
S'Amphiprion clarkii'
p583
sS'Family'
p584
S'Damsel'
p585
sS'Size (cm)'
p586
S'16'
p587
sS'Recommended tank size'
p588
S'medium'
p589
sS'Most used common name'
p590
S'<a href="http://saltwater.aqua-fish.net/?clarkii-clown">Clarkii Clown</a>'
p591
sS'Care'
p592
S'easy'
p593
sa(dp594
S'Origin'
p595
S'Indo-West Pacific'
p596
sS'Scientific name'
p597
S'Amphiprion ephippium'
p598
sS'Family'
p599
S'Damsel'
p600
sS'Size (cm)'
p601
S'5'
sS'Recommended tank size'
p602
S'medium'
p603
sS'Most used common name'
p604
S'<a href="http://saltwater.aqua-fish.net/?fire-clownfish">Fire Clownfish</a>'
p605
sS'Care'
p606
S'easy'
p607
sa(dp608
S'Origin'
p609
S'Indo-Pacific'
p610
sS'Scientific name'
p611
S'Amphiprion frenatus'
p612
sS'Family'
p613
S'Damsel'
p614
sS'Other identification'
p615
S'Tomato Clown, Tomato Anemonefish'
p616
sS'Size (cm)'
p617
S'15'
p618
sS'Recommended tank size'
p619
S'medium'
p620
sS'Most used common name'
p621
S'<a href="http://saltwater.aqua-fish.net/?tomato-clown">Tomato Clown</a>'
p622
sS'Care'
p623
S'easy'
p624
sa(dp625
S'Origin'
p626
S'Indo-Pacific'
p627
sS'Scientific name'
p628
S'Amphiprion ocellaris'
p629
sS'Family'
p630
S'Damsel'
p631
sS'Other identification'
p632
S'Black and White False Ocellaris Clown, False Clown Anemonefish'
p633
sS'Size (cm)'
p634
S'8'
sS'Recommended tank size'
p635
S'medium'
p636
sS'Most used common name'
p637
S'<a href="http://saltwater.aqua-fish.net/?black-and-white-false-ocellaris-clown">Black and White False Ocellaris Clown</a>'
p638
sS'Care'
p639
S'not very difficult'
p640
sa(dp641
S'Origin'
p642
S'Indo-Pacific'
p643
sS'Scientific name'
p644
S'Amphiprion percula'
p645
sS'Family'
p646
S'Damsel'
p647
sS'Size (cm)'
p648
S'8'
sS'Recommended tank size'
p649
S'medium'
p650
sS'Most used common name'
p651
S'<a href="http://saltwater.aqua-fish.net/?true-percula-clown">True Percula Clown</a>'
p652
sS'Care'
p653
S'not very difficult'
p654
sa(dp655
S'Origin'
p656
S'the Coral Sea'
p657
sS'Scientific name'
p658
S'Amphiprion perideraion'
p659
sS'Family'
p660
S'Damsel'
p661
sS'Size (cm)'
p662
S'10'
p663
sS'Recommended tank size'
p664
S'medium'
p665
sS'Most used common name'
p666
S'<a href="http://saltwater.aqua-fish.net/?pink-skunk-clown">Pink Skunk Clown</a>'
p667
sS'Care'
p668
S'not very difficult'
p669
sa(dp670
S'Origin'
p671
S'Indo-Pacific'
p672
sS'Scientific name'
p673
S'Amphiprion polymnus'
p674
sS'Family'
p675
S'Damsel'
p676
sS'Size (cm)'
p677
S'13'
p678
sS'Recommended tank size'
p679
S'medium'
p680
sS'Most used common name'
p681
S'<a href="http://saltwater.aqua-fish.net/?brown-saddle-clown">Brown Saddle Clown</a>'
p682
sS'Care'
p683
S'not very difficult'
p684
sa(dp685
S'Origin'
p686
S'Western Pacific'
p687
sS'Scientific name'
p688
S'Amphiprion tricinctus'
p689
sS'Family'
p690
S'Damsel'
p691
sS'Other identification'
p692
S'Three-Banded Anemonefish, Maroon Clownfish'
p693
sS'Size (cm)'
p694
S'12'
p695
sS'Recommended tank size'
p696
S'medium'
p697
sS'Most used common name'
p698
S'<a href="http://saltwater.aqua-fish.net/?three-banded-anemonefish">Three-Banded Anemonefish</a>'
p699
sS'Care'
p700
S'not very difficult'
p701
sa(dp702
S'Origin'
p703
S'Europan coast'
p704
sS'Scientific name'
p705
S'Anguilla anguilla'
p706
sS'Family'
p707
S'Freshwater Eel'
p708
sS'Size (cm)'
p709
S'130'
p710
sS'Recommended tank size'
p711
S'very large'
p712
sS'Most used common name'
p713
S'<a href="http://saltwater.aqua-fish.net/?european-eel">European Eel</a>'
p714
sS'Care'
p715
S'not very difficult'
p716
sa(dp717
S'Origin'
p718
S'Indo-Pacific'
p719
sS'Scientific name'
p720
S'Anguilla bicolor bicolor'
p721
sS'Family'
p722
S'Freshwater Eel'
p723
sS'Size (cm)'
p724
S'120'
p725
sS'Recommended tank size'
p726
S'very large'
p727
sS'Most used common name'
p728
S'<a href="http://saltwater.aqua-fish.net/?indonesian-shortfin-eel">Indonesian Shortfin Eel</a>'
p729
sS'Care'
p730
S'not very difficult'
p731
sa(dp732
S'Origin'
p733
S'East Africa'
p734
sS'Scientific name'
p735
S'Anguilla mossambica'
p736
sS'Family'
p737
S'Freshwater Eel'
p738
sS'Size (cm)'
p739
S'150'
p740
sS'Recommended tank size'
p741
S'very large'
p742
sS'Most used common name'
p743
S'<a href="http://saltwater.aqua-fish.net/?african-longfin-eel">African Longfin Eel</a>'
p744
sS'Care'
p745
S'not very difficult'
p746
sa(dp747
S'Origin'
p748
S'South America'
p749
sS'Scientific name'
p750
S'Anisotremus virginicus'
p751
sS'Family'
p752
S'Grunts'
p753
sS'Size (cm)'
p754
S'30'
p755
sS'Recommended tank size'
p756
S'large'
p757
sS'Most used common name'
p758
S'<a href="http://saltwater.aqua-fish.net/?porkfish">Porkfish</a>'
p759
sS'Care'
p760
S'easy'
p761
sa(dp762
S'Origin'
p763
S'East Asia and Australia'
p764
sS'Scientific name'
p765
S'Anomalops katoptron'
p766
sS'Family'
p767
S'Lanterneye Fish'
p768
sS'Size (cm)'
p769
S'35'
p770
sS'Recommended tank size'
p771
S'large'
p772
sS'Most used common name'
p773
S'<a href="http://saltwater.aqua-fish.net/?splitfin-flashlightfish">Splitfin Flashlightfish</a>'
p774
sS'Care'
p775
S'not very difficult'
p776
sa(dp777
S'Origin'
p778
S'Indo-Pacific'
p779
sS'Scientific name'
p780
S'Antennarius pictus'
p781
sS'Family'
p782
S'Frog Fish'
p783
sS'Size (cm)'
p784
S'20'
p785
sS'Recommended tank size'
p786
S'large'
p787
sS'Most used common name'
p788
S'<a href="http://saltwater.aqua-fish.net/?painted-frog-fish">Painted Frog Fish</a>'
p789
sS'Care'
p790
S'not very difficult'
p791
sa(dp792
S'Origin'
p793
S'Eastern Pacific'
p794
sS'Scientific name'
p795
S'Anthias anthias'
p796
sS'Family'
p797
S'Sea Basses'
p798
sS'Other identification'
p799
S'Swallowtail Seaperch, Marine Goldfish'
p800
sS'Size (cm)'
p801
S'27'
p802
sS'Recommended tank size'
p803
S'large'
p804
sS'Most used common name'
p805
S'<a href="http://saltwater.aqua-fish.net/?swallowtail-seaperch">Swallowtail Seaperch</a>'
p806
sS'Care'
p807
S'not very difficult'
p808
sa(dp809
S'Origin'
p810
S'Central America Coast'
p811
sS'Scientific name'
p812
S'Apogon binotatus'
p813
sS'Family'
p814
S'Cardinal'
p815
sS'Size (cm)'
p816
S'13'
p817
sS'Recommended tank size'
p818
S'medium'
p819
sS'Most used common name'
p820
S'<a href="http://saltwater.aqua-fish.net/?barred-cardinalfish">Barred Cardinalfish</a>'
p821
sS'Care'
p822
S'easy'
p823
sa(dp824
S'Origin'
p825
S'Indo-Pacific'
p826
sS'Scientific name'
p827
S'Apogon chrysopomus'
p828
sS'Family'
p829
S'Cardinal'
p830
sS'Size (cm)'
p831
S'11'
p832
sS'Recommended tank size'
p833
S'medium'
p834
sS'Most used common name'
p835
S'<a href="http://saltwater.aqua-fish.net/?spotted-gill-cardinalfish">Spotted-Gill Cardinalfish</a>'
p836
sS'Care'
p837
S'easy'
p838
sa(dp839
S'Origin'
p840
S'Indo-Pacific'
p841
sS'Scientific name'
p842
S'Apogon cyanosoma'
p843
sS'Family'
p844
S'Cardinal'
p845
sS'Size (cm)'
p846
S'7'
sS'Recommended tank size'
p847
S'medium'
p848
sS'Most used common name'
p849
S'<a href="http://saltwater.aqua-fish.net/?orange-striped-cardinalfish">Orange Striped Cardinalfish</a>'
p850
sS'Care'
p851
S'easy'
p852
sa(dp853
S'Origin'
p854
S'Indo-Pacific'
p855
sS'Scientific name'
p856
S'Apogon leptacanthus'
p857
sS'Family'
p858
S'Cardinal'
p859
sS'Size (cm)'
p860
S'6'
sS'Recommended tank size'
p861
S'medium'
p862
sS'Most used common name'
p863
S'<a href="http://saltwater.aqua-fish.net/?threadfin-cardinalfish">Threadfin Cardinalfish</a>'
p864
sS'Care'
p865
S'easy'
p866
sa(dp867
S'Origin'
p868
S'Western Pacific'
p869
sS'Scientific name'
p870
S'Apogon margaritophorus'
p871
sS'Family'
p872
S'Cardinal'
p873
sS'Size (cm)'
p874
S'7'
sS'Recommended tank size'
p875
S'medium'
p876
sS'Most used common name'
p877
S'<a href="http://saltwater.aqua-fish.net/?red-striped-cardinalfish">Red-Striped Cardinalfish</a>'
p878
sS'Care'
p879
S'easy'
p880
sa(dp881
S'Origin'
p882
S'Western Pacific'
p883
sS'Scientific name'
p884
S'Apogon moluccensis'
p885
sS'Family'
p886
S'Cardinal'
p887
sS'Size (cm)'
p888
S'9'
sS'Recommended tank size'
p889
S'medium'
p890
sS'Most used common name'
p891
S'<a href="http://saltwater.aqua-fish.net/?moluccan-cardinalfish">Moluccan Cardinalfish</a>'
p892
sS'Care'
p893
S'easy'
p894
sa(dp895
S'Origin'
p896
S'Western Pacific'
p897
sS'Scientific name'
p898
S'Apogon multilineatus'
p899
sS'Family'
p900
S'Cardinal'
p901
sS'Size (cm)'
p902
S'10'
p903
sS'Recommended tank size'
p904
S'medium'
p905
sS'Most used common name'
p906
S'<a href="http://saltwater.aqua-fish.net/?many-lined-cardinalfish">Many-Lined Cardinalfish</a>'
p907
sS'Care'
p908
S'easy'
p909
sa(dp910
S'Origin'
p911
S'Western Pacific'
p912
sS'Scientific name'
p913
S'Apogon notatus'
p914
sS'Family'
p915
S'Cardinal'
p916
sS'Size (cm)'
p917
S'10'
p918
sS'Recommended tank size'
p919
S'medium'
p920
sS'Most used common name'
p921
S'<a href="http://saltwater.aqua-fish.net/?spotnape-cardinalfish">Spotnape Cardinalfish</a>'
p922
sS'Care'
p923
S'easy'
p924
sa(dp925
S'Origin'
p926
S'Indo-Pacific'
p927
sS'Scientific name'
p928
S'Apogon novemfasciatus'
p929
sS'Family'
p930
S'Cardinal'
p931
sS'Size (cm)'
p932
S'10'
p933
sS'Recommended tank size'
p934
S'medium'
p935
sS'Most used common name'
p936
S'<a href="http://saltwater.aqua-fish.net/?sevenstriped-cardinalfish">Sevenstriped Cardinalfish</a>'
p937
sS'Care'
p938
S'easy'
p939
sa(dp940
S'Origin'
p941
S'Western Atlantic'
p942
sS'Scientific name'
p943
S'Apogon pseudomaculatus'
p944
sS'Family'
p945
S'Cardinal'
p946
sS'Other identification'
p947
S'Flame Cardinal, Twospot Cardinalfish'
p948
sS'Size (cm)'
p949
S'10'
p950
sS'Recommended tank size'
p951
S'medium'
p952
sS'Most used common name'
p953
S'<a href="http://saltwater.aqua-fish.net/?flame-cardinal">Flame Cardinal</a>'
p954
sS'Care'
p955
S'easy'
p956
sa(dp957
S'Origin'
p958
S'Indo-West Pacific'
p959
sS'Scientific name'
p960
S'Apolemichthys trimaculatus'
p961
sS'Family'
p962
S'Angelfish'
p963
sS'Other identification'
p964
S'Flagfin Angel, Three-Spot Angelfish'
p965
sS'Size (cm)'
p966
S'25'
p967
sS'Recommended tank size'
p968
S'large'
p969
sS'Most used common name'
p970
S'<a href="http://saltwater.aqua-fish.net/?three-spot-angelfish">Three-Spot Angelfish</a>'
p971
sS'Care'
p972
S'not very difficult'
p973
sa(dp974
S'Origin'
p975
S'Indo-West Pacific'
p976
sS'Scientific name'
p977
S'Apolemichthys xanthurus'
p978
sS'Family'
p979
S'Angelfish'
p980
sS'Size (cm)'
p981
S'15'
p982
sS'Recommended tank size'
p983
S'large'
p984
sS'Most used common name'
p985
S'<a href="http://saltwater.aqua-fish.net/?yellowtail-angelfish">Yellowtail Angelfish</a>'
p986
sS'Care'
p987
S'not very difficult'
p988
sa(dp989
S'Origin'
p990
S'Western Indian Ocean'
p991
sS'Scientific name'
p992
S'Ariopsis felis'
p993
sS'Family'
p994
S'Sea Catfish'
p995
sS'Other identification'
p996
S'Hardhead Sea Catfish, Sea Catfish'
p997
sS'Size (cm)'
p998
S'60'
p999
sS'Recommended tank size'
p1000
S'very large'
p1001
sS'Most used common name'
p1002
S'<a href="http://saltwater.aqua-fish.net/?hardhead-sea-catfish">Hardhead Sea Catfish</a>'
p1003
sS'Care'
p1004
S'difficult'
p1005
sa(dp1006
S'Origin'
p1007
S'South Pacific'
p1008
sS'Scientific name'
p1009
S'Arius berneyi'
p1010
sS'Family'
p1011
S'Sea Catfish'
p1012
sS'Size (cm)'
p1013
S'45'
p1014
sS'Recommended tank size'
p1015
S'very large'
p1016
sS'Most used common name'
p1017
S'<a href="http://saltwater.aqua-fish.net/?berneys-catfish">Berney\'s Catfish</a>'
p1018
sS'Care'
p1019
S'not very difficult'
p1020
sa(dp1021
S'Origin'
p1022
S'Western Pacific'
p1023
sS'Scientific name'
p1024
S'Arius graeffei'
p1025
sS'Family'
p1026
S'Sea Catfish'
p1027
sS'Other identification'
p1028
S'Blue Catfish, Lesser Salmon Catfish, Salmon Catfish'
p1029
sS'Size (cm)'
p1030
S'50'
p1031
sS'Recommended tank size'
p1032
S'very large'
p1033
sS'Most used common name'
p1034
S'<a href="http://saltwater.aqua-fish.net/?salmon-catfish">Salmon Catfish</a>'
p1035
sS'Care'
p1036
S'difficult'
p1037
sa(dp1038
S'Origin'
p1039
S'West African Coast'
p1040
sS'Scientific name'
p1041
S'Arius latiscutatus'
p1042
sS'Family'
p1043
S'Sea Catfish'
p1044
sS'Size (cm)'
p1045
S'60'
p1046
sS'Recommended tank size'
p1047
S'very large'
p1048
sS'Most used common name'
p1049
S'<a href="http://saltwater.aqua-fish.net/?rough-head-sea-catfish">Rough-Head Sea Catfish</a>'
p1050
sS'Care'
p1051
S'difficult'
p1052
sa(dp1053
S'Origin'
p1054
S'Indo-Pacific'
p1055
sS'Scientific name'
p1056
S'Arius maculatus'
p1057
sS'Family'
p1058
S'Sea Catfish'
p1059
sS'Size (cm)'
p1060
S'80'
p1061
sS'Recommended tank size'
p1062
S'very large'
p1063
sS'Most used common name'
p1064
S'<a href="http://saltwater.aqua-fish.net/?spotted-catfish">Spotted Catfish</a>'
p1065
sS'Care'
p1066
S'not very difficult'
p1067
sa(dp1068
S'Origin'
p1069
S'Indo-Pacific'
p1070
sS'Scientific name'
p1071
S'Arothron hispidus'
p1072
sS'Family'
p1073
S'Puffer'
p1074
sS'Size (cm)'
p1075
S'50'
p1076
sS'Recommended tank size'
p1077
S'very large'
p1078
sS'Most used common name'
p1079
S'<a href="http://saltwater.aqua-fish.net/?white-spotted-puffer">White-Spotted Puffer</a>'
p1080
sS'Care'
p1081
S'not very difficult'
p1082
sa(dp1083
S'Origin'
p1084
S'Indo-Pacific'
p1085
sS'Scientific name'
p1086
S'Arothron meleagris'
p1087
sS'Family'
p1088
S'Puffer'
p1089
sS'Other identification'
p1090
S'Guineafowl Puffer, Golden Puffer, Guinea Fowl, Spotted Puffer'
p1091
sS'Size (cm)'
p1092
S'50'
p1093
sS'Recommended tank size'
p1094
S'large'
p1095
sS'Most used common name'
p1096
S'<a href="http://saltwater.aqua-fish.net/?golden-puffer">Golden Puffer</a>'
p1097
sS'Care'
p1098
S'not very difficult'
p1099
sa(dp1100
S'Origin'
p1101
S'Indo-Pacific'
p1102
sS'Scientific name'
p1103
S'Arothron nigropunctatus'
p1104
sS'Family'
p1105
S'Puffer'
p1106
sS'Other identification'
p1107
S'Dogface Puffer, Arothron Dogface Puffer, Blackspotted Puffer'
p1108
sS'Size (cm)'
p1109
S'33'
p1110
sS'Recommended tank size'
p1111
S'large'
p1112
sS'Most used common name'
p1113
S'<a href="http://saltwater.aqua-fish.net/?dogface-puffer">Dogface Puffer</a>'
p1114
sS'Care'
p1115
S'not very difficult'
p1116
sa(dp1117
S'Origin'
p1118
S'Indo-Pacific'
p1119
sS'Scientific name'
p1120
S'Arothron stellatus'
p1121
sS'Family'
p1122
S'Puffer'
p1123
sS'Size (cm)'
p1124
S'120'
p1125
sS'Recommended tank size'
p1126
S'very large'
p1127
sS'Most used common name'
p1128
S'<a href="http://saltwater.aqua-fish.net/?starry-pufferfish">Starry Pufferfish</a>'
p1129
sS'Care'
p1130
S'difficult'
p1131
sa(dp1132
S'Origin'
p1133
S'Indo-Pacific'
p1134
sS'Scientific name'
p1135
S'Aulostomus chinensis'
p1136
sS'Family'
p1137
S'Trumpetfish'
p1138
sS'Size (cm)'
p1139
S'80'
p1140
sS'Recommended tank size'
p1141
S'very large'
p1142
sS'Most used common name'
p1143
S'<a href="http://saltwater.aqua-fish.net/?chinese-trumpetfish">Chinese Trumpetfish</a>'
p1144
sS'Care'
p1145
S'not very difficult'
p1146
sa(dp1147
S'Origin'
p1148
S'Western Atlantic'
p1149
sS'Scientific name'
p1150
S'Aulostomus maculatus'
p1151
sS'Family'
p1152
S'Trumpetfish'
p1153
sS'Size (cm)'
p1154
S'100'
p1155
sS'Recommended tank size'
p1156
S'very large'
p1157
sS'Most used common name'
p1158
S'<a href="http://saltwater.aqua-fish.net/?trumpetfish">Trumpetfish</a>'
p1159
sS'Care'
p1160
S'not very difficult'
p1161
sa(dp1162
S'Origin'
p1163
S'Western Atlantic'
p1164
sS'Scientific name'
p1165
S'Bagre marinus'
p1166
sS'Family'
p1167
S'Sea Catfish'
p1168
sS'Size (cm)'
p1169
S'70'
p1170
sS'Recommended tank size'
p1171
S'very large'
p1172
sS'Most used common name'
p1173
S'<a href="http://saltwater.aqua-fish.net/?gafftopsail-sea-catfish">Gafftopsail Sea Catfish</a>'
p1174
sS'Care'
p1175
S'difficult'
p1176
sa(dp1177
S'Origin'
p1178
S'Indo-Pacific'
p1179
sS'Scientific name'
p1180
S'Balistapus undulatus'
p1181
sS'Family'
p1182
S'Triggers'
p1183
sS'Other identification'
p1184
S'Undulate Trigger, Orangelined, Orangetailed, Orange-Lined Triggerfish'
p1185
sS'Size (cm)'
p1186
S'30'
p1187
sS'Recommended tank size'
p1188
S'large'
p1189
sS'Most used common name'
p1190
S'<a href="http://saltwater.aqua-fish.net/?undulate-trigger">Undulate Trigger</a>'
p1191
sS'Care'
p1192
S'easy'
p1193
sa(dp1194
S'Origin'
p1195
S'Indo-Pacific'
p1196
sS'Scientific name'
p1197
S'Balistes vetula'
p1198
sS'Family'
p1199
S'Triggers'
p1200
sS'Size (cm)'
p1201
S'60'
p1202
sS'Recommended tank size'
p1203
S'very large'
p1204
sS'Most used common name'
p1205
S'<a href="http://saltwater.aqua-fish.net/?queen-trigger">Queen Trigger</a>'
p1206
sS'Care'
p1207
S'difficult'
p1208
sa(dp1209
S'Origin'
p1210
S'Indo-Pacific'
p1211
sS'Scientific name'
p1212
S'Balistoides conspicillum'
p1213
sS'Family'
p1214
S'Triggers'
p1215
sS'Size (cm)'
p1216
S'50'
p1217
sS'Recommended tank size'
p1218
S'large'
p1219
sS'Most used common name'
p1220
S'<a href="http://saltwater.aqua-fish.net/?clown-trigger">Clown Trigger</a>'
p1221
sS'Care'
p1222
S'easy'
p1223
sa(dp1224
S'Origin'
p1225
S'Indo-Pacific'
p1226
sS'Scientific name'
p1227
S'Bodianus anthioides'
p1228
sS'Family'
p1229
S'Wrasses'
p1230
sS'Other identification'
p1231
S'Lyretail Hogfish, Forktail Hogfish'
p1232
sS'Size (cm)'
p1233
S'20'
p1234
sS'Recommended tank size'
p1235
S'medium'
p1236
sS'Most used common name'
p1237
S'<a href="http://saltwater.aqua-fish.net/?lyretail-hogfish">Lyretail Hogfish</a>'
p1238
sS'Care'
p1239
S'not very difficult'
p1240
sa(dp1241
S'Origin'
p1242
S'Indo-Pacific'
p1243
sS'Scientific name'
p1244
S'Bodianus bimaculatus'
p1245
sS'Family'
p1246
S'Wrasses'
p1247
sS'Size (cm)'
p1248
S'10'
p1249
sS'Recommended tank size'
p1250
S'medium'
p1251
sS'Most used common name'
p1252
S'<a href="http://saltwater.aqua-fish.net/?twinspot-hogfish">Twinspot Hogfish</a>'
p1253
sS'Care'
p1254
S'easy'
p1255
sa(dp1256
S'Origin'
p1257
S'Sri Lanka'
p1258
sS'Scientific name'
p1259
S'Bodianus diana'
p1260
sS'Family'
p1261
S'Wrasses'
p1262
sS'Other identification'
p1263
S"Red Diana Hogfish, Diana's Hogfish"
p1264
sS'Size (cm)'
p1265
S'25'
p1266
sS'Recommended tank size'
p1267
S'large'
p1268
sS'Most used common name'
p1269
S'<a href="http://saltwater.aqua-fish.net/?red-diana-hogfish">Red Diana Hogfish</a>'
p1270
sS'Care'
p1271
S'not very difficult'
p1272
sa(dp1273
S'Origin'
p1274
S'Caribbean'
p1275
sS'Scientific name'
p1276
S'Bodianus pulchellus'
p1277
sS'Family'
p1278
S'Wrasses'
p1279
sS'Other identification'
p1280
S'Cuban Hogfish, Spotfin Hogfish'
p1281
sS'Size (cm)'
p1282
S'25'
p1283
sS'Recommended tank size'
p1284
S'large'
p1285
sS'Most used common name'
p1286
S'<a href="http://saltwater.aqua-fish.net/?cuban-hogfish">Cuban Hogfish</a>'
p1287
sS'Care'
p1288
S'not very difficult'
p1289
sa(dp1290
S'Origin'
p1291
S'South America'
p1292
sS'Scientific name'
p1293
S'Bodianus rufus'
p1294
sS'Family'
p1295
S'Wrasses'
p1296
sS'Size (cm)'
p1297
S'40'
p1298
sS'Recommended tank size'
p1299
S'large'
p1300
sS'Most used common name'
p1301
S'<a href="http://saltwater.aqua-fish.net/?spanish-hogfish">Spanish Hogfish</a>'
p1302
sS'Care'
p1303
S'not very difficult'
p1304
sa(dp1305
S'Origin'
p1306
S'Indo-Pacific'
p1307
sS'Scientific name'
p1308
S'Caesio caerulaurea'
p1309
sS'Family'
p1310
S'Fusilier'
p1311
sS'Size (cm)'
p1312
S'35'
p1313
sS'Recommended tank size'
p1314
S'large'
p1315
sS'Most used common name'
p1316
S'<a href="http://saltwater.aqua-fish.net/?blue-and-gold-fusilier">Blue and Gold Fusilier</a>'
p1317
sS'Care'
p1318
S'easy'
p1319
sa(dp1320
S'Origin'
p1321
S'Indo-Pacific'
p1322
sS'Scientific name'
p1323
S'Caesio cuning'
p1324
sS'Family'
p1325
S'Fusilier'
p1326
sS'Size (cm)'
p1327
S'60'
p1328
sS'Recommended tank size'
p1329
S'very large'
p1330
sS'Most used common name'
p1331
S'<a href="http://saltwater.aqua-fish.net/?redbelly-yellowtail-fusilier">Redbelly Yellowtail Fusilier</a>'
p1332
sS'Care'
p1333
S'not very difficult'
p1334
sa(dp1335
S'Origin'
p1336
S'Western Pacific'
p1337
sS'Scientific name'
p1338
S'Callechelys guineensis'
p1339
sS'Family'
p1340
S'Snake Eel'
p1341
sS'Size (cm)'
p1342
S'108'
p1343
sS'Recommended tank size'
p1344
S'very large'
p1345
sS'Most used common name'
p1346
S'<a href="http://saltwater.aqua-fish.net/?shorttail-snake-eel">Shorttail Snake Eel</a>'
p1347
sS'Care'
p1348
S'not very difficult'
p1349
sa(dp1350
S'Origin'
p1351
S'Indo-Pacific'
p1352
sS'Scientific name'
p1353
S'Calloplesiops altivelis'
p1354
sS'Family'
p1355
S'Roundhead'
p1356
sS'Other identification'
p1357
S'Marine Betta Grouper, Comet, Comet Grouper'
p1358
sS'Size (cm)'
p1359
S'20'
p1360
sS'Recommended tank size'
p1361
S'medium'
p1362
sS'Most used common name'
p1363
S'<a href="http://saltwater.aqua-fish.net/?marine-betta-grouper">Marine Betta Grouper</a>'
p1364
sS'Care'
p1365
S'easy'
p1366
sa(dp1367
S'Origin'
p1368
S'Indo-Pacific'
p1369
sS'Scientific name'
p1370
S'Canthigaster solandri'
p1371
sS'Family'
p1372
S'Puffer'
p1373
sS'Size (cm)'
p1374
S'11'
p1375
sS'Recommended tank size'
p1376
S'medium'
p1377
sS'Most used common name'
p1378
S'<a href="http://saltwater.aqua-fish.net/?spotted-toby">Spotted Toby</a>'
p1379
sS'Care'
p1380
S'not very difficult'
p1381
sa(dp1382
S'Origin'
p1383
S'Indo-Pacific'
p1384
sS'Scientific name'
p1385
S'Canthigaster valentini'
p1386
sS'Family'
p1387
S'Puffer'
p1388
sS'Other identification'
p1389
S"Saddle Valentini Puffer, Valentini's Sharpnose Puffer, Valentini Puffer"
p1390
sS'Size (cm)'
p1391
S'13'
p1392
sS'Recommended tank size'
p1393
S'medium'
p1394
sS'Most used common name'
p1395
S'<a href="http://saltwater.aqua-fish.net/?saddle-valentini-puffer">Saddle Valentini Puffer</a>'
p1396
sS'Care'
p1397
S'not very difficult'
p1398
sa(dp1399
S'Origin'
p1400
S'North-East Atlantic and the Mediterranean sea'
p1401
sS'Scientific name'
p1402
S'Capros aper'
p1403
sS'Family'
p1404
S'Boarfish'
p1405
sS'Size (cm)'
p1406
S'30'
p1407
sS'Recommended tank size'
p1408
S'large'
p1409
sS'Most used common name'
p1410
S'<a href="http://saltwater.aqua-fish.net/?boarfish">Boarfish</a>'
p1411
sS'Care'
p1412
S'not very difficult'
p1413
sa(dp1414
S'Origin'
p1415
S'Western Pacific'
p1416
sS'Scientific name'
p1417
S'Centropyge aurantia'
p1418
sS'Family'
p1419
S'Angelfish'
p1420
sS'Other identification'
p1421
S'Golden Angelfish, Velvet Dwarf Angel'
p1422
sS'Size (cm)'
p1423
S'11'
p1424
sS'Recommended tank size'
p1425
S'medium'
p1426
sS'Most used common name'
p1427
S'<a href="http://saltwater.aqua-fish.net/?golden-angelfish">Golden Angelfish</a>'
p1428
sS'Care'
p1429
S'not very difficult'
p1430
sa(dp1431
S'Origin'
p1432
S'South America'
p1433
sS'Scientific name'
p1434
S'Centropyge aurantonotus'
p1435
sS'Family'
p1436
S'Angelfish'
p1437
sS'Size (cm)'
p1438
S'8'
sS'Recommended tank size'
p1439
S'medium'
p1440
sS'Most used common name'
p1441
S'<a href="http://saltwater.aqua-fish.net/?flameback-angel">Flameback Angel</a>'
p1442
sS'Care'
p1443
S'not very difficult'
p1444
sa(dp1445
S'Origin'
p1446
S'Fiji'
p1447
sS'Scientific name'
p1448
S'Centropyge bicolor'
p1449
sS'Family'
p1450
S'Angelfish'
p1451
sS'Size (cm)'
p1452
S'12'
p1453
sS'Recommended tank size'
p1454
S'medium'
p1455
sS'Most used common name'
p1456
S'<a href="http://saltwater.aqua-fish.net/?bicolor-angelfish">Bicolor Angelfish</a>'
p1457
sS'Care'
p1458
S'not very difficult'
p1459
sa(dp1460
S'Origin'
p1461
S'Indo-Pacific'
p1462
sS'Scientific name'
p1463
S'Centropyge bispinosa'
p1464
sS'Family'
p1465
S'Angelfish'
p1466
sS'Other identification'
p1467
S'Twospined Angelfish, Coral Beauty Angel'
p1468
sS'Size (cm)'
p1469
S'10'
p1470
sS'Recommended tank size'
p1471
S'medium'
p1472
sS'Most used common name'
p1473
S'<a href="http://saltwater.aqua-fish.net/?twospined-angelfish">Twospined Angelfish</a>'
p1474
sS'Care'
p1475
S'not very difficult'
p1476
sa(dp1477
S'Origin'
p1478
S'Western Pacific'
p1479
sS'Scientific name'
p1480
S'Centropyge ferrugata'
p1481
sS'Family'
p1482
S'Angelfish'
p1483
sS'Size (cm)'
p1484
S'10'
p1485
sS'Recommended tank size'
p1486
S'medium'
p1487
sS'Most used common name'
p1488
S'<a href="http://saltwater.aqua-fish.net/?rusty-angelfish">Rusty Angelfish</a>'
p1489
sS'Care'
p1490
S'easy'
p1491
sa(dp1492
S'Origin'
p1493
S'Indo-Pacific'
p1494
sS'Scientific name'
p1495
S'Centropyge flavissima'
p1496
sS'Family'
p1497
S'Angelfish'
p1498
sS'Size (cm)'
p1499
S'14'
p1500
sS'Recommended tank size'
p1501
S'small'
p1502
sS'Most used common name'
p1503
S'<a href="http://saltwater.aqua-fish.net/?lemonpeel-angelfish">Lemonpeel Angelfish</a>'
p1504
sS'Care'
p1505
S'not very difficult'
p1506
sa(dp1507
S'Origin'
p1508
S'Pacific Ocean'
p1509
sS'Scientific name'
p1510
S'Centropyge heraldi'
p1511
sS'Family'
p1512
S'Angelfish'
p1513
sS'Size (cm)'
p1514
S'10'
p1515
sS'Recommended tank size'
p1516
S'medium'
p1517
sS'Most used common name'
p1518
S'<a href="http://saltwater.aqua-fish.net/?yellow-angelfish">Yellow Angelfish</a>'
p1519
sS'Care'
p1520
S'not very difficult'
p1521
sa(dp1522
S'Origin'
p1523
S'Pacific Ocean'
p1524
sS'Scientific name'
p1525
S'Centropyge loricula'
p1526
sS'Family'
p1527
S'Angelfish'
p1528
sS'Size (cm)'
p1529
S'10'
p1530
sS'Recommended tank size'
p1531
S'medium'
p1532
sS'Most used common name'
p1533
S'<a href="http://saltwater.aqua-fish.net/?flame-angel">Flame Angel</a>'
p1534
sS'Care'
p1535
S'not very difficult'
p1536
sa(dp1537
S'Origin'
p1538
S'Indo-West Pacific'
p1539
sS'Scientific name'
p1540
S'Centropyge multispinis'
p1541
sS'Family'
p1542
S'Angelfish'
p1543
sS'Size (cm)'
p1544
S'14'
p1545
sS'Recommended tank size'
p1546
S'medium'
p1547
sS'Most used common name'
p1548
S'<a href="http://saltwater.aqua-fish.net/?dusky-angelfish">Dusky Angelfish</a>'
p1549
sS'Care'
p1550
S'easy'
p1551
sa(dp1552
S'Origin'
p1553
S'Hawaiian Islands'
p1554
sS'Scientific name'
p1555
S'Centropyge potteri'
p1556
sS'Family'
p1557
S'Angelfish'
p1558
sS'Other identification'
p1559
S"Potter's Angelfish, Russet Angelfish"
p1560
sS'Size (cm)'
p1561
S'10'
p1562
sS'Recommended tank size'
p1563
S'medium'
p1564
sS'Most used common name'
p1565
S'<a href="http://saltwater.aqua-fish.net/?russet-angelfish">Russet Angelfish</a>'
p1566
sS'Care'
p1567
S'easy'
p1568
sa(dp1569
S'Origin'
p1570
S'Pacific Ocean'
p1571
sS'Scientific name'
p1572
S'Centropyge tibicen'
p1573
sS'Family'
p1574
S'Angelfish'
p1575
sS'Size (cm)'
p1576
S'19'
p1577
sS'Recommended tank size'
p1578
S'medium'
p1579
sS'Most used common name'
p1580
S'<a href="http://saltwater.aqua-fish.net/?keyhole-angelfish">Keyhole Angelfish</a>'
p1581
sS'Care'
p1582
S'not very difficult'
p1583
sa(dp1584
S'Origin'
p1585
S'Indo-Pacific'
p1586
sS'Scientific name'
p1587
S'Centropyge vrolikii'
p1588
sS'Family'
p1589
S'Angelfish'
p1590
sS'Size (cm)'
p1591
S'12'
p1592
sS'Recommended tank size'
p1593
S'medium'
p1594
sS'Most used common name'
p1595
S'<a href="http://saltwater.aqua-fish.net/?half-black-angel">Half Black Angel</a>'
p1596
sS'Care'
p1597
S'not very difficult'
p1598
sa(dp1599
S'Origin'
p1600
S'Western Pacific'
p1601
sS'Scientific name'
p1602
S'Cephalopholis cyanostigma'
p1603
sS'Family'
p1604
S'Grouper'
p1605
sS'Size (cm)'
p1606
S'40'
p1607
sS'Recommended tank size'
p1608
S'large'
p1609
sS'Most used common name'
p1610
S'<a href="http://saltwater.aqua-fish.net/?bluespotted-hind">Bluespotted Hind</a>'
p1611
sS'Care'
p1612
S'not very difficult'
p1613
sa(dp1614
S'Origin'
p1615
S'Indo-West Pacific'
p1616
sS'Scientific name'
p1617
S'Cephalopholis formosa'
p1618
sS'Family'
p1619
S'Grouper'
p1620
sS'Size (cm)'
p1621
S'34'
p1622
sS'Recommended tank size'
p1623
S'large'
p1624
sS'Most used common name'
p1625
S'<a href="http://saltwater.aqua-fish.net/?bluelined-hind">Bluelined Hind</a>'
p1626
sS'Care'
p1627
S'not very difficult'
p1628
sa(dp1629
S'Origin'
p1630
S'Indo-Pacific'
p1631
sS'Scientific name'
p1632
S'Cephalopholis miniata'
p1633
sS'Family'
p1634
S'Grouper'
p1635
sS'Other identification'
p1636
S'Miniatus Grouper, Coral Hind'
p1637
sS'Size (cm)'
p1638
S'45'
p1639
sS'Recommended tank size'
p1640
S'very large'
p1641
sS'Most used common name'
p1642
S'<a href="http://saltwater.aqua-fish.net/?miniatus-grouper">Miniatus Grouper</a>'
p1643
sS'Care'
p1644
S'difficult'
p1645
sa(dp1646
S'Origin'
p1647
S'Indo-Pacific'
p1648
sS'Scientific name'
p1649
S'Cephalopholis sexmaculata'
p1650
sS'Family'
p1651
S'Grouper'
p1652
sS'Size (cm)'
p1653
S'50'
p1654
sS'Recommended tank size'
p1655
S'very large'
p1656
sS'Most used common name'
p1657
S'<a href="http://saltwater.aqua-fish.net/?sicblotch-hind">Sicblotch Hind</a>'
p1658
sS'Care'
p1659
S'not very difficult'
p1660
sa(dp1661
S'Origin'
p1662
S'Indo-Pacific'
p1663
sS'Scientific name'
p1664
S'Cetoscarus bicolor'
p1665
sS'Family'
p1666
S'Parrotfish'
p1667
sS'Size (cm)'
p1668
S'90'
p1669
sS'Recommended tank size'
p1670
S'very large'
p1671
sS'Most used common name'
p1672
S'<a href="http://saltwater.aqua-fish.net/?bicolor-parrotfish">Bicolor Parrotfish</a>'
p1673
sS'Care'
p1674
S'difficult'
p1675
sa(dp1676
S'Origin'
p1677
S'Indo-West Pacific'
p1678
sS'Scientific name'
p1679
S'Chaetodermis penicilligera'
p1680
sS'Family'
p1681
S'Filefish'
p1682
sS'Other identification'
p1683
S'Tassle Filefish, Prickly Leatherjacket'
p1684
sS'Size (cm)'
p1685
S'31'
p1686
sS'Recommended tank size'
p1687
S'large'
p1688
sS'Most used common name'
p1689
S'<a href="http://saltwater.aqua-fish.net/?tassle-filefish">Tassle Filefish</a>'
p1690
sS'Care'
p1691
S'easy'
p1692
sa(dp1693
S'Origin'
p1694
S'East Atlantic'
p1695
sS'Scientific name'
p1696
S'Chaetodipterus lippei'
p1697
sS'Family'
p1698
S'Spadefish'
p1699
sS'Size (cm)'
p1700
S'31'
p1701
sS'Recommended tank size'
p1702
S'large'
p1703
sS'Most used common name'
p1704
S'<a href="http://saltwater.aqua-fish.net/?west-african-spadefish">West African Spadefish</a>'
p1705
sS'Care'
p1706
S'not very difficult'
p1707
sa(dp1708
S'Origin'
p1709
S'Indo-Pacific'
p1710
sS'Scientific name'
p1711
S'Chaetodon auriga'
p1712
sS'Family'
p1713
S'Butterfly Fish'
p1714
sS'Size (cm)'
p1715
S'23'
p1716
sS'Recommended tank size'
p1717
S'large'
p1718
sS'Most used common name'
p1719
S'<a href="http://saltwater.aqua-fish.net/?threadfin-butterflyfish">Threadfin Butterflyfish</a>'
p1720
sS'Care'
p1721
S'not very difficult'
p1722
sa(dp1723
S'Origin'
p1724
S'Indo-West Pacific'
p1725
sS'Scientific name'
p1726
S'Chaetodon collare'
p1727
sS'Family'
p1728
S'Butterfly Fish'
p1729
sS'Size (cm)'
p1730
S'18'
p1731
sS'Recommended tank size'
p1732
S'medium'
p1733
sS'Most used common name'
p1734
S'<a href="http://saltwater.aqua-fish.net/?redtail-butterflyfish">Redtail Butterflyfish</a>'
p1735
sS'Care'
p1736
S'not very difficult'
p1737
sa(dp1738
S'Origin'
p1739
S'Indo-Pacific'
p1740
sS'Scientific name'
p1741
S'Chaetodon ephippium'
p1742
sS'Family'
p1743
S'Butterfly Fish'
p1744
sS'Size (cm)'
p1745
S'30'
p1746
sS'Recommended tank size'
p1747
S'large'
p1748
sS'Most used common name'
p1749
S'<a href="http://saltwater.aqua-fish.net/?saddle-butterflyfish">Saddle Butterflyfish</a>'
p1750
sS'Care'
p1751
S'not very difficult'
p1752
sa(dp1753
S'Origin'
p1754
S'Indian Ocean'
p1755
sS'Scientific name'
p1756
S'Chaetodon falcula'
p1757
sS'Family'
p1758
S'Butterfly Fish'
p1759
sS'Size (cm)'
p1760
S'20'
p1761
sS'Recommended tank size'
p1762
S'large'
p1763
sS'Most used common name'
p1764
S'<a href="http://saltwater.aqua-fish.net/?blackwedgeg-butterflyfish">Blackwedgeg Butterflyfish</a>'
p1765
sS'Care'
p1766
S'easy'
p1767
sa(dp1768
S'Origin'
p1769
S'Pacific Ocean'
p1770
sS'Scientific name'
p1771
S'Chaetodon flavirostris'
p1772
sS'Family'
p1773
S'Butterfly Fish'
p1774
sS'Other identification'
p1775
S'Black Butterflyfish, Dusky Butterflyfish, Yellow-face Butterflyfish'
p1776
sS'Size (cm)'
p1777
S'20'
p1778
sS'Recommended tank size'
p1779
S'medium'
p1780
sS'Most used common name'
p1781
S'<a href="http://saltwater.aqua-fish.net/?black-butterflyfish">Black Butterflyfish</a>'
p1782
sS'Care'
p1783
S'difficult'
p1784
sa(dp1785
S'Origin'
p1786
S'Indo-Pacific'
p1787
sS'Scientific name'
p1788
S'Chaetodon kleinii'
p1789
sS'Family'
p1790
S'Butterfly Fish'
p1791
sS'Size (cm)'
p1792
S'15'
p1793
sS'Recommended tank size'
p1794
S'medium'
p1795
sS'Most used common name'
p1796
S'<a href="http://saltwater.aqua-fish.net/?sunburst-butterflyfish">Sunburst Butterflyfish</a>'
p1797
sS'Care'
p1798
S'easy'
p1799
sa(dp1800
S'Origin'
p1801
S'Western Indian Ocean'
p1802
sS'Scientific name'
p1803
S'Chaetodon larvatus'
p1804
sS'Family'
p1805
S'Butterfly Fish'
p1806
sS'Size (cm)'
p1807
S'12'
p1808
sS'Recommended tank size'
p1809
S'medium'
p1810
sS'Most used common name'
p1811
S'<a href="http://saltwater.aqua-fish.net/?hooded-butterflyfish">Hooded Butterflyfish</a>'
p1812
sS'Care'
p1813
S'easy'
p1814
sa(dp1815
S'Origin'
p1816
S'Indo-Pacific'
p1817
sS'Scientific name'
p1818
S'Chaetodon lunula'
p1819
sS'Family'
p1820
S'Butterfly Fish'
p1821
sS'Size (cm)'
p1822
S'20'
p1823
sS'Recommended tank size'
p1824
S'large'
p1825
sS'Most used common name'
p1826
S'<a href="http://saltwater.aqua-fish.net/?raccoon-butterflyfish">Raccoon Butterflyfish</a>'
p1827
sS'Care'
p1828
S'easy'
p1829
sa(dp1830
S'Origin'
p1831
S'Eastern Central Pacific'
p1832
sS'Scientific name'
p1833
S'Chaetodon miliaris'
p1834
sS'Family'
p1835
S'Butterfly Fish'
p1836
sS'Other identification'
p1837
S'Millet Butterflyfish, Lemon Butterfly'
p1838
sS'Size (cm)'
p1839
S'13'
p1840
sS'Recommended tank size'
p1841
S'medium'
p1842
sS'Most used common name'
p1843
S'<a href="http://saltwater.aqua-fish.net/?millet-butterflyfish">Millet Butterflyfish</a>'
p1844
sS'Care'
p1845
S'easy'
p1846
sa(dp1847
S'Origin'
p1848
S'Indo-West Pacific'
p1849
sS'Scientific name'
p1850
S'Chaetodon octofasciatus'
p1851
sS'Family'
p1852
S'Butterfly Fish'
p1853
sS'Size (cm)'
p1854
S'12'
p1855
sS'Recommended tank size'
p1856
S'medium'
p1857
sS'Most used common name'
p1858
S'<a href="http://saltwater.aqua-fish.net/?eightband-butterflyfish">Eightband Butterflyfish</a>'
p1859
sS'Care'
p1860
S'easy'
p1861
sa(dp1862
S'Origin'
p1863
S'the Red Sea'
p1864
sS'Scientific name'
p1865
S'Chaetodon semilarvatus'
p1866
sS'Family'
p1867
S'Butterfly Fish'
p1868
sS'Other identification'
p1869
S'Bluecheek Butterflyfish, Red Sea Butterfly'
p1870
sS'Size (cm)'
p1871
S'23'
p1872
sS'Recommended tank size'
p1873
S'large'
p1874
sS'Most used common name'
p1875
S'<a href="http://saltwater.aqua-fish.net/?bluecheek-butterflyfish">Bluecheek Butterflyfish</a>'
p1876
sS'Care'
p1877
S'not very difficult'
p1878
sa(dp1879
S'Origin'
p1880
S'Indo-Pacific'
p1881
sS'Scientific name'
p1882
S'Chaetodon vagabundus'
p1883
sS'Family'
p1884
S'Butterfly Fish'
p1885
sS'Size (cm)'
p1886
S'23'
p1887
sS'Recommended tank size'
p1888
S'large'
p1889
sS'Most used common name'
p1890
S'<a href="http://saltwater.aqua-fish.net/?vagabond-butterflyfish">Vagabond Butterflyfish</a>'
p1891
sS'Care'
p1892
S'not very difficult'
p1893
sa(dp1894
S'Origin'
p1895
S'Western Pacific'
p1896
sS'Scientific name'
p1897
S'Chaetodon xanthurus'
p1898
sS'Family'
p1899
S'Butterfly Fish'
p1900
sS'Other identification'
p1901
S'Pearlscale Butterflyfish, Yellow-Tail Butterflyfish'
p1902
sS'Size (cm)'
p1903
S'14'
p1904
sS'Recommended tank size'
p1905
S'medium'
p1906
sS'Most used common name'
p1907
S'<a href="http://saltwater.aqua-fish.net/?pearlscale-butterflyfish">Pearlscale Butterflyfish</a>'
p1908
sS'Care'
p1909
S'not very difficult'
p1910
sa(dp1911
S'Origin'
p1912
S'Indo-West Pacific'
p1913
sS'Scientific name'
p1914
S'Chaetodontoplus duboulayi'
p1915
sS'Family'
p1916
S'Angelfish'
p1917
sS'Size (cm)'
p1918
S'28'
p1919
sS'Recommended tank size'
p1920
S'large'
p1921
sS'Most used common name'
p1922
S'<a href="http://saltwater.aqua-fish.net/?scribbled-angelfish">Scribbled Angelfish</a>'
p1923
sS'Care'
p1924
S'not very difficult'
p1925
sa(dp1926
S'Origin'
p1927
S'Indo-West Pacific'
p1928
sS'Scientific name'
p1929
S'Chaetodontoplus melanosoma'
p1930
sS'Family'
p1931
S'Angelfish'
p1932
sS'Other identification'
p1933
S'Black Velvet Angelfish, Grey Poma'
p1934
sS'Size (cm)'
p1935
S'20'
p1936
sS'Recommended tank size'
p1937
S'large'
p1938
sS'Most used common name'
p1939
S'<a href="http://saltwater.aqua-fish.net/?black-velvet-angelfish">Black Velvet Angelfish</a>'
p1940
sS'Care'
p1941
S'not very difficult'
p1942
sa(dp1943
S'Origin'
p1944
S'Western Pacific'
p1945
sS'Scientific name'
p1946
S'Chaetodontoplus meredithi'
p1947
sS'Family'
p1948
S'Angelfish'
p1949
sS'Size (cm)'
p1950
S'25'
p1951
sS'Recommended tank size'
p1952
S'large'
p1953
sS'Most used common name'
p1954
S'<a href="http://saltwater.aqua-fish.net/?queensland-yellowtail-angelfish">Queensland Yellowtail Angelfish</a>'
p1955
sS'Care'
p1956
S'not very difficult'
p1957
sa(dp1958
S'Origin'
p1959
S'Indo-West Pacific'
p1960
sS'Scientific name'
p1961
S'Chaetodontoplus mesoleucus'
p1962
sS'Family'
p1963
S'Angelfish'
p1964
sS'Other identification'
p1965
S'Singapore Angel, Vermiculated Angelfish'
p1966
sS'Size (cm)'
p1967
S'18'
p1968
sS'Recommended tank size'
p1969
S'medium'
p1970
sS'Most used common name'
p1971
S'<a href="http://saltwater.aqua-fish.net/?vermiculated-angelfish">Vermiculated Angelfish</a>'
p1972
sS'Care'
p1973
S'not very difficult'
p1974
sa(dp1975
S'Origin'
p1976
S'Indo-Pacific'
p1977
sS'Scientific name'
p1978
S'Cheilinus chlorourus'
p1979
sS'Family'
p1980
S'Wrasses'
p1981
sS'Size (cm)'
p1982
S'45'
p1983
sS'Recommended tank size'
p1984
S'very large'
p1985
sS'Most used common name'
p1986
S'<a href="http://saltwater.aqua-fish.net/?floral-wrasse">Floral Wrasse</a>'
p1987
sS'Care'
p1988
S'difficult'
p1989
sa(dp1990
S'Origin'
p1991
S'Western Indian Ocean'
p1992
sS'Scientific name'
p1993
S'Cheilinus lunulatus'
p1994
sS'Family'
p1995
S'Wrasses'
p1996
sS'Size (cm)'
p1997
S'50'
p1998
sS'Recommended tank size'
p1999
S'very large'
p2000
sS'Most used common name'
p2001
S'<a href="http://saltwater.aqua-fish.net/?broomtail-wrasse">Broomtail Wrasse</a>'
p2002
sS'Care'
p2003
S'difficult'
p2004
sa(dp2005
S'Origin'
p2006
S'Indo-Pacific'
p2007
sS'Scientific name'
p2008
S'Cheilinus undulatus'
p2009
sS'Family'
p2010
S'Wrasses'
p2011
sS'Size (cm)'
p2012
S'229'
p2013
sS'Recommended tank size'
p2014
S'very large'
p2015
sS'Most used common name'
p2016
S'<a href="http://saltwater.aqua-fish.net/?humphead-wrasse">Humphead Wrasse</a>'
p2017
sS'Care'
p2018
S'difficult'
p2019
sa(dp2020
S'Origin'
p2021
S'Indo-Pacific'
p2022
sS'Scientific name'
p2023
S'Cheilio inermis'
p2024
sS'Family'
p2025
S'Wrasses'
p2026
sS'Size (cm)'
p2027
S'50'
p2028
sS'Recommended tank size'
p2029
S'large'
p2030
sS'Most used common name'
p2031
S'<a href="http://saltwater.aqua-fish.net/?cigar-wrasse">Cigar Wrasse</a>'
p2032
sS'Care'
p2033
S'difficult'
p2034
sa(dp2035
S'Origin'
p2036
S'Indo-Pacific'
p2037
sS'Scientific name'
p2038
S'Chelmon rostratus'
p2039
sS'Family'
p2040
S'Butterfly Fish'
p2041
sS'Size (cm)'
p2042
S'20'
p2043
sS'Recommended tank size'
p2044
S'large'
p2045
sS'Most used common name'
p2046
S'<a href="http://saltwater.aqua-fish.net/?copperhand-butterfly">Copperhand Butterfly</a>'
p2047
sS'Care'
p2048
S'not very difficult'
p2049
sa(dp2050
S'Origin'
p2051
S'Indo-West Pacific'
p2052
sS'Scientific name'
p2053
S'Chiloscyllium griseum'
p2054
sS'Family'
p2055
S'Bamboo Shark'
p2056
sS'Size (cm)'
p2057
S'74'
p2058
sS'Recommended tank size'
p2059
S'very large'
p2060
sS'Most used common name'
p2061
S'<a href="http://saltwater.aqua-fish.net/?grey-bambooshark">Grey Bambooshark</a>'
p2062
sS'Care'
p2063
S'difficult'
p2064
sa(dp2065
S'Origin'
p2066
S'Indo-West Pacific'
p2067
sS'Scientific name'
p2068
S'Chiloscyllium plagiosum'
p2069
sS'Family'
p2070
S'Bamboo Shark'
p2071
sS'Size (cm)'
p2072
S'85'
p2073
sS'Recommended tank size'
p2074
S'very large'
p2075
sS'Most used common name'
p2076
S'<a href="http://saltwater.aqua-fish.net/?whitespotted-bambooshark">Whitespotted Bambooshark</a>'
p2077
sS'Care'
p2078
S'difficult'
p2079
sa(dp2080
S'Origin'
p2081
S'Indo-West Pacific'
p2082
sS'Scientific name'
p2083
S'Chiloscyllium punctatum'
p2084
sS'Family'
p2085
S'Bamboo Shark'
p2086
sS'Other identification'
p2087
S'Cat Shark, Brown Banded Bambooshark, Black Banded Cat Shark'
p2088
sS'Size (cm)'
p2089
S'100'
p2090
sS'Recommended tank size'
p2091
S'very large'
p2092
sS'Most used common name'
p2093
S'<a href="http://saltwater.aqua-fish.net/?cat-shark">Cat Shark</a>'
p2094
sS'Care'
p2095
S'difficult'
p2096
sa(dp2097
S'Origin'
p2098
S'Western Pacific'
p2099
sS'Scientific name'
p2100
S'Choerodon azurio'
p2101
sS'Family'
p2102
S'Wrasses'
p2103
sS'Size (cm)'
p2104
S'26'
p2105
sS'Recommended tank size'
p2106
S'large'
p2107
sS'Most used common name'
p2108
S'<a href="http://saltwater.aqua-fish.net/?scarbreast-tuskfish">Scarbreast Tuskfish</a>'
p2109
sS'Care'
p2110
S'not very difficult'
p2111
sa(dp2112
S'Origin'
p2113
S'Western Pacific'
p2114
sS'Scientific name'
p2115
S'Choerodon fasciatus'
p2116
sS'Family'
p2117
S'Wrasses'
p2118
sS'Size (cm)'
p2119
S'30'
p2120
sS'Recommended tank size'
p2121
S'large'
p2122
sS'Most used common name'
p2123
S'<a href="http://saltwater.aqua-fish.net/?harlequin-tuskfish">Harlequin Tuskfish</a>'
p2124
sS'Care'
p2125
S'not very difficult'
p2126
sa(dp2127
S'Origin'
p2128
S'Indo-Pacific'
p2129
sS'Scientific name'
p2130
S'Chromis caerulea'
p2131
sS'Family'
p2132
S'Damsel'
p2133
sS'Size (cm)'
p2134
S'7'
sS'Recommended tank size'
p2135
S'medium'
p2136
sS'Most used common name'
p2137
S'<a href="http://saltwater.aqua-fish.net/?green-chromis">Green Chromis</a>'
p2138
sS'Care'
p2139
S'easy'
p2140
sa(dp2141
S'Origin'
p2142
S'East Atlantic'
p2143
sS'Scientific name'
p2144
S'Chromis chromis'
p2145
sS'Family'
p2146
S'Damsel'
p2147
sS'Size (cm)'
p2148
S'25'
p2149
sS'Recommended tank size'
p2150
S'large'
p2151
sS'Most used common name'
p2152
S'<a href="http://saltwater.aqua-fish.net/?damselfish">Damselfish</a>'
p2153
sS'Care'
p2154
S'not very difficult'
p2155
sa(dp2156
S'Origin'
p2157
S'Caribbean'
p2158
sS'Scientific name'
p2159
S'Chromis cyanea'
p2160
sS'Family'
p2161
S'Damsel'
p2162
sS'Size (cm)'
p2163
S'17'
p2164
sS'Recommended tank size'
p2165
S'medium'
p2166
sS'Most used common name'
p2167
S'<a href="http://saltwater.aqua-fish.net/?blue-reef-chromis-damsel">Blue Reef Chromis Damsel</a>'
p2168
sS'Care'
p2169
S'easy'
p2170
sa(dp2171
S'Origin'
p2172
S'Indo-Pacific'
p2173
sS'Scientific name'
p2174
S'Chromis viridis'
p2175
sS'Family'
p2176
S'Damsel'
p2177
sS'Size (cm)'
p2178
S'8'
sS'Recommended tank size'
p2179
S'large'
p2180
sS'Most used common name'
p2181
S'<a href="http://saltwater.aqua-fish.net/?blue-green-damselfish">Blue Green Damselfish</a>'
p2182
sS'Care'
p2183
S'easy'
p2184
sa(dp2185
S'Origin'
p2186
S'Indo-Pacific'
p2187
sS'Scientific name'
p2188
S'Chrysiptera brownriggii'
p2189
sS'Family'
p2190
S'Damsel'
p2191
sS'Size (cm)'
p2192
S'8'
sS'Recommended tank size'
p2193
S'medium'
p2194
sS'Most used common name'
p2195
S'<a href="http://saltwater.aqua-fish.net/?surge-damselfish">Surge Damselfish</a>'
p2196
sS'Care'
p2197
S'easy'
p2198
sa(dp2199
S'Origin'
p2200
S'Indo-West Pacific'
p2201
sS'Scientific name'
p2202
S'Chrysiptera cyanea'
p2203
sS'Family'
p2204
S'Damsel'
p2205
sS'Size (cm)'
p2206
S'9'
sS'Recommended tank size'
p2207
S'medium'
p2208
sS'Most used common name'
p2209
S'<a href="http://saltwater.aqua-fish.net/?sapphire-devil">Sapphire Devil</a>'
p2210
sS'Care'
p2211
S'easy'
p2212
sa(dp2213
S'Origin'
p2214
S'Western Pacific'
p2215
sS'Scientific name'
p2216
S'Chrysiptera parasema'
p2217
sS'Family'
p2218
S'Damsel'
p2219
sS'Size (cm)'
p2220
S'7'
sS'Recommended tank size'
p2221
S'medium'
p2222
sS'Most used common name'
p2223
S'<a href="http://saltwater.aqua-fish.net/?goldtail-demoiselle">Goldtail Demoiselle</a>'
p2224
sS'Care'
p2225
S'easy'
p2226
sa(dp2227
S'Origin'
p2228
S'Western Pacific'
p2229
sS'Scientific name'
p2230
S'Chrysiptera springeri'
p2231
sS'Family'
p2232
S'Damsel'
p2233
sS'Size (cm)'
p2234
S'6'
sS'Recommended tank size'
p2235
S'medium'
p2236
sS'Most used common name'
p2237
S'<a href="http://saltwater.aqua-fish.net/?springers-damoiselle">Springer\'s Damoiselle</a>'
p2238
sS'Care'
p2239
S'easy'
p2240
sa(dp2241
S'Origin'
p2242
S'Western Pacific'
p2243
sS'Scientific name'
p2244
S'Chrysiptera talboti'
p2245
sS'Family'
p2246
S'Damsel'
p2247
sS'Other identification'
p2248
S"Talbot's Demoiselle, Talbot's Damselfish"
p2249
sS'Size (cm)'
p2250
S'6'
sS'Recommended tank size'
p2251
S'medium'
p2252
sS'Most used common name'
p2253
S'<a href="http://saltwater.aqua-fish.net/?talbots-damselfish">Talbot\'s Damselfish</a>'
p2254
sS'Care'
p2255
S'easy'
p2256
sa(dp2257
S'Origin'
p2258
S'Indo-West Pacific'
p2259
sS'Scientific name'
p2260
S'Chrysiptera unimaculata'
p2261
sS'Family'
p2262
S'Damsel'
p2263
sS'Size (cm)'
p2264
S'10'
p2265
sS'Recommended tank size'
p2266
S'medium'
p2267
sS'Most used common name'
p2268
S'<a href="http://saltwater.aqua-fish.net/?onespot-demoiselle">Onespot Demoiselle</a>'
p2269
sS'Care'
p2270
S'easy'
p2271
sa(dp2272
S'Origin'
p2273
S'Western Pacific'
p2274
sS'Scientific name'
p2275
S'Cirrhilabrus cyanopleura'
p2276
sS'Family'
p2277
S'Wrasses'
p2278
sS'Size (cm)'
p2279
S'15'
p2280
sS'Recommended tank size'
p2281
S'medium'
p2282
sS'Most used common name'
p2283
S'<a href="http://saltwater.aqua-fish.net/?blue-head-fairy-wrasse">Blue Head Fairy Wrasse</a>'
p2284
sS'Care'
p2285
S'not very difficult'
p2286
sa(dp2287
S'Origin'
p2288
S'Indo-Pacific'
p2289
sS'Scientific name'
p2290
S'Cirrhilabrus exquisitus'
p2291
sS'Family'
p2292
S'Wrasses'
p2293
sS'Size (cm)'
p2294
S'12'
p2295
sS'Recommended tank size'
p2296
S'medium'
p2297
sS'Most used common name'
p2298
S'<a href="http://saltwater.aqua-fish.net/?exquisite-wrasse">Exquisite Wrasse</a>'
p2299
sS'Care'
p2300
S'not very difficult'
p2301
sa(dp2302
S'Origin'
p2303
S'Indo-Pacific'
p2304
sS'Scientific name'
p2305
S'Cirrhilabrus rubrisquamis'
p2306
sS'Family'
p2307
S'Wrasses'
p2308
sS'Size (cm)'
p2309
S'14'
p2310
sS'Recommended tank size'
p2311
S'medium'
p2312
sS'Most used common name'
p2313
S'<a href="http://saltwater.aqua-fish.net/?red-velvet-wrasse">Red Velvet Wrasse</a>'
p2314
sS'Care'
p2315
S'difficult'
p2316
sa(dp2317
S'Origin'
p2318
S'Western Indian Ocean'
p2319
sS'Scientific name'
p2320
S'Cirrhilabrus rubriventralis'
p2321
sS'Family'
p2322
S'Wrasses'
p2323
sS'Other identification'
p2324
S'Red Parrot Fairy Wrasse, Social Wrasse'
p2325
sS'Size (cm)'
p2326
S'8'
sS'Recommended tank size'
p2327
S'medium'
p2328
sS'Most used common name'
p2329
S'<a href="http://saltwater.aqua-fish.net/?red-parrot-fairy-wrasse">Red Parrot Fairy Wrasse</a>'
p2330
sS'Care'
p2331
S'not very difficult'
p2332
sa(dp2333
S'Origin'
p2334
S'Indo-Pacific'
p2335
sS'Scientific name'
p2336
S'Cirrhilabrus solorensis'
p2337
sS'Family'
p2338
S'Wrasses'
p2339
sS'Other identification'
p2340
S'Painted Fairy Wrasse, Rainbow Fairy Wrasse'
p2341
sS'Size (cm)'
p2342
S'11'
p2343
sS'Recommended tank size'
p2344
S'medium'
p2345
sS'Most used common name'
p2346
S'<a href="http://saltwater.aqua-fish.net/?rainbow-fairy-wrasse">Rainbow Fairy Wrasse</a>'
p2347
sS'Care'
p2348
S'not very difficult'
p2349
sa(dp2350
S'Origin'
p2351
S'Western Pacific'
p2352
sS'Scientific name'
p2353
S'Cirrhitichthys falco'
p2354
sS'Family'
p2355
S'Hawkfish'
p2356
sS'Other identification'
p2357
S'Dwarf Hawkfish, Falco Hawkfish'
p2358
sS'Size (cm)'
p2359
S'7'
sS'Recommended tank size'
p2360
S'medium'
p2361
sS'Most used common name'
p2362
S'<a href="http://saltwater.aqua-fish.net/?dwarf-hawkfish">Dwarf Hawkfish</a>'
p2363
sS'Care'
p2364
S'easy'
p2365
sa(dp2366
S'Origin'
p2367
S'Indo-Pacific'
p2368
sS'Scientific name'
p2369
S'Cirrhitichthys oxycephalus'
p2370
sS'Family'
p2371
S'Hawkfish'
p2372
sS'Other identification'
p2373
S'Coral Hawkfish, Pixy Hawkfish'
p2374
sS'Size (cm)'
p2375
S'13'
p2376
sS'Recommended tank size'
p2377
S'medium'
p2378
sS'Most used common name'
p2379
S'<a href="http://saltwater.aqua-fish.net/?coral-hawkfish">Coral Hawkfish</a>'
p2380
sS'Care'
p2381
S'easy'
p2382
sa(dp2383
S'Origin'
p2384
S'Pacific Ocean'
p2385
sS'Scientific name'
p2386
S'Cirrhitops fasciatus'
p2387
sS'Family'
p2388
S'Hawkfish'
p2389
sS'Size (cm)'
p2390
S'12'
p2391
sS'Recommended tank size'
p2392
S'medium'
p2393
sS'Most used common name'
p2394
S'<a href="http://saltwater.aqua-fish.net/?redbarred-hawkfish">Redbarred Hawkfish</a>'
p2395
sS'Care'
p2396
S'easy'
p2397
sa(dp2398
S'Origin'
p2399
S'Indo-Pacific'
p2400
sS'Scientific name'
p2401
S'Coris aygula'
p2402
sS'Family'
p2403
S'Wrasses'
p2404
sS'Size (cm)'
p2405
S'120'
p2406
sS'Recommended tank size'
p2407
S'very large'
p2408
sS'Most used common name'
p2409
S'<a href="http://saltwater.aqua-fish.net/?clown-coris">Clown Coris</a>'
p2410
sS'Care'
p2411
S'not very difficult'
p2412
sa(dp2413
S'Origin'
p2414
S'Indian Ocean'
p2415
sS'Scientific name'
p2416
S'Coris formosa'
p2417
sS'Family'
p2418
S'Wrasses'
p2419
sS'Size (cm)'
p2420
S'60'
p2421
sS'Recommended tank size'
p2422
S'very large'
p2423
sS'Most used common name'
p2424
S'<a href="http://saltwater.aqua-fish.net/?queen-coris">Queen Coris</a>'
p2425
sS'Care'
p2426
S'difficult'
p2427
sa(dp2428
S'Origin'
p2429
S'Indian Ocean'
p2430
sS'Scientific name'
p2431
S'Coris frerei'
p2432
sS'Family'
p2433
S'Wrasses'
p2434
sS'Other identification'
p2435
S'Formosa Wrasse, Queen Coris'
p2436
sS'Size (cm)'
p2437
S'86'
p2438
sS'Recommended tank size'
p2439
S'very large'
p2440
sS'Most used common name'
p2441
S'<a href="http://saltwater.aqua-fish.net/?formosa-wrasse">Formosa Wrasse</a>'
p2442
sS'Care'
p2443
S'difficult'
p2444
sa(dp2445
S'Origin'
p2446
S'Pacific Ocean'
p2447
sS'Scientific name'
p2448
S'Coris gaimard'
p2449
sS'Family'
p2450
S'Wrasses'
p2451
sS'Size (cm)'
p2452
S'40'
p2453
sS'Recommended tank size'
p2454
S'large'
p2455
sS'Most used common name'
p2456
S'<a href="http://saltwater.aqua-fish.net/?yellowtail-coris">Yellowtail Coris</a>'
p2457
sS'Care'
p2458
S'difficult'
p2459
sa(dp2460
S'Origin'
p2461
S'East Atlantic'
p2462
sS'Scientific name'
p2463
S'Coris julis'
p2464
sS'Family'
p2465
S'Wrasses'
p2466
sS'Size (cm)'
p2467
S'30'
p2468
sS'Recommended tank size'
p2469
S'large'
p2470
sS'Most used common name'
p2471
S'<a href="http://saltwater.aqua-fish.net/?mediterranean-rainbow-wrasse">Mediterranean Rainbow Wrasse</a>'
p2472
sS'Care'
p2473
S'not very difficult'
p2474
sa(dp2475
S'Origin'
p2476
S'Indo-Pacific'
p2477
sS'Scientific name'
p2478
S'Cromileptes altivelis'
p2479
sS'Family'
p2480
S'Grouper'
p2481
sS'Size (cm)'
p2482
S'70'
p2483
sS'Recommended tank size'
p2484
S'very large'
p2485
sS'Most used common name'
p2486
S'<a href="http://saltwater.aqua-fish.net/?panther-grouper">Panther Grouper</a>'
p2487
sS'Care'
p2488
S'easy'
p2489
sa(dp2490
S'Origin'
p2491
S'Indo-West Pacific'
p2492
sS'Scientific name'
p2493
S'Cryptocentrus fasciatus'
p2494
sS'Family'
p2495
S'Goby'
p2496
sS'Size (cm)'
p2497
S'14'
p2498
sS'Recommended tank size'
p2499
S'medium'
p2500
sS'Most used common name'
p2501
S'<a href="http://saltwater.aqua-fish.net/?y-bay-shrimp-goby">Y-Bay Shrimp Goby</a>'
p2502
sS'Care'
p2503
S'easy'
p2504
sa(dp2505
S'Origin'
p2506
S'Indo-Pacific'
p2507
sS'Scientific name'
p2508
S'Cryptocentrus leptocephalus'
p2509
sS'Family'
p2510
S'Goby'
p2511
sS'Size (cm)'
p2512
S'15'
p2513
sS'Recommended tank size'
p2514
S'medium'
p2515
sS'Most used common name'
p2516
S'<a href="http://saltwater.aqua-fish.net/?spotted-watchman-goby">Pinkspotted Shrimp Goby</a>'
p2517
sS'Care'
p2518
S'easy'
p2519
sa(dp2520
S'Origin'
p2521
S'Pacific Ocean'
p2522
sS'Scientific name'
p2523
S'Ctenochaetus hawaiiensis'
p2524
sS'Family'
p2525
S'Tang'
p2526
sS'Size (cm)'
p2527
S'25'
p2528
sS'Recommended tank size'
p2529
S'large'
p2530
sS'Most used common name'
p2531
S'<a href="http://saltwater.aqua-fish.net/?chevron-tang">Chevron Tang</a>'
p2532
sS'Care'
p2533
S'difficult'
p2534
sa(dp2535
S'Origin'
p2536
S'Indo-Pacific'
p2537
sS'Scientific name'
p2538
S'Ctenochaetus striatus'
p2539
sS'Family'
p2540
S'Tang'
p2541
sS'Size (cm)'
p2542
S'26'
p2543
sS'Recommended tank size'
p2544
S'large'
p2545
sS'Most used common name'
p2546
S'<a href="http://saltwater.aqua-fish.net/?striated-surgeonfish">Striated Surgeonfish</a>'
p2547
sS'Care'
p2548
S'not very difficult'
p2549
sa(dp2550
S'Origin'
p2551
S'Pacific Ocean'
p2552
sS'Scientific name'
p2553
S'Ctenochaetus strigosus'
p2554
sS'Family'
p2555
S'Tang'
p2556
sS'Other identification'
p2557
S'Spotted Surgeonfish, Yellow Eye Kole Tang'
p2558
sS'Size (cm)'
p2559
S'14'
p2560
sS'Recommended tank size'
p2561
S'large'
p2562
sS'Most used common name'
p2563
S'<a href="http://saltwater.aqua-fish.net/?spotted-surgeonfish">Spotted Surgeonfish</a>'
p2564
sS'Care'
p2565
S'not very difficult'
p2566
sa(dp2567
S'Origin'
p2568
S'Central America Coast'
p2569
sS'Scientific name'
p2570
S'Cynoscion nebulosus'
p2571
sS'Family'
p2572
S'Drum'
p2573
sS'Size (cm)'
p2574
S'100'
p2575
sS'Recommended tank size'
p2576
S'very large'
p2577
sS'Most used common name'
p2578
S'<a href="http://saltwater.aqua-fish.net/?spotted-seatrout">Spotted Seatrout</a>'
p2579
sS'Care'
p2580
S'not very difficult'
p2581
sa(dp2582
S'Origin'
p2583
S'Indo-West Pacific'
p2584
sS'Scientific name'
p2585
S'Cypselurus oligolepis'
p2586
sS'Family'
p2587
S'Flight Fish'
p2588
sS'Size (cm)'
p2589
S'27'
p2590
sS'Recommended tank size'
p2591
S'very large'
p2592
sS'Most used common name'
p2593
S'<a href="http://saltwater.aqua-fish.net/?kargescake-flightfish">Kargescake Flightfish</a>'
p2594
sS'Care'
p2595
S'not very difficult'
p2596
sa(dp2597
S'Origin'
p2598
S'Atlantic Coast'
p2599
sS'Scientific name'
p2600
S'Dactylopterus volitans'
p2601
sS'Family'
p2602
S'Flying Gurnards'
p2603
sS'Size (cm)'
p2604
S'50'
p2605
sS'Recommended tank size'
p2606
S'very large'
p2607
sS'Most used common name'
p2608
S'<a href="http://saltwater.aqua-fish.net/?flying-gurnard">Flying Gurnard</a>'
p2609
sS'Care'
p2610
S'difficult'
p2611
sa(dp2612
S'Origin'
p2613
S'Indo-Pacific'
p2614
sS'Scientific name'
p2615
S'Dascyllus aruanus'
p2616
sS'Family'
p2617
S'Damsel'
p2618
sS'Other identification'
p2619
S'Whitetail Dascyllus, 3-Stripe Damsel'
p2620
sS'Size (cm)'
p2621
S'10'
p2622
sS'Recommended tank size'
p2623
S'medium'
p2624
sS'Most used common name'
p2625
S'<a href="http://saltwater.aqua-fish.net/?whitetail-dascyllus">Whitetail Dascyllus</a>'
p2626
sS'Care'
p2627
S'easy'
p2628
sa(dp2629
S'Origin'
p2630
S'Indo-Pacific'
p2631
sS'Scientific name'
p2632
S'Dascyllus reticulatus'
p2633
sS'Family'
p2634
S'Damsel'
p2635
sS'Other identification'
p2636
S'Reticulate Dascyllus, 2-Stripe Damsel'
p2637
sS'Size (cm)'
p2638
S'10'
p2639
sS'Recommended tank size'
p2640
S'medium'
p2641
sS'Most used common name'
p2642
S'<a href="http://saltwater.aqua-fish.net/?reticulate-dascyllus">Reticulate Dascyllus</a>'
p2643
sS'Care'
p2644
S'easy'
p2645
sa(dp2646
S'Origin'
p2647
S'Indo-Pacific'
p2648
sS'Scientific name'
p2649
S'Dascyllus trimaculatus'
p2650
sS'Family'
p2651
S'Damsel'
p2652
sS'Other identification'
p2653
S'Threespot Dascyllus, 3-Spot Domino Damsel'
p2654
sS'Size (cm)'
p2655
S'12'
p2656
sS'Recommended tank size'
p2657
S'medium'
p2658
sS'Most used common name'
p2659
S'<a href="http://saltwater.aqua-fish.net/?threespot-dascyllus">Threespot Dascyllus</a>'
p2660
sS'Care'
p2661
S'easy'
p2662
sa(dp2663
S'Origin'
p2664
S'Central America Coast'
p2665
sS'Scientific name'
p2666
S'Dasyatis americana'
p2667
sS'Family'
p2668
S'Stingray'
p2669
sS'Size (cm)'
p2670
S'200'
p2671
sS'Recommended tank size'
p2672
S'very large'
p2673
sS'Most used common name'
p2674
S'<a href="http://saltwater.aqua-fish.net/?southern-stingray">Southern Stingray</a>'
p2675
sS'Care'
p2676
S'difficult'
p2677
sa(dp2678
S'Origin'
p2679
S'East Atlantic'
p2680
sS'Scientific name'
p2681
S'Dasyatis pastinaca'
p2682
sS'Family'
p2683
S'Stingray'
p2684
sS'Size (cm)'
p2685
S'54'
p2686
sS'Recommended tank size'
p2687
S'very large'
p2688
sS'Most used common name'
p2689
S'<a href="http://saltwater.aqua-fish.net/?common-stingray">Common Stingray</a>'
p2690
sS'Care'
p2691
S'difficult'
p2692
sa(dp2693
S'Origin'
p2694
S'Central America Coast'
p2695
sS'Scientific name'
p2696
S'Dasyatis sabina'
p2697
sS'Family'
p2698
S'Stingray'
p2699
sS'Size (cm)'
p2700
S'60'
p2701
sS'Recommended tank size'
p2702
S'very large'
p2703
sS'Most used common name'
p2704
S'<a href="http://saltwater.aqua-fish.net/?atlantic-stingray">Atlantic Stingray</a>'
p2705
sS'Care'
p2706
S'difficult'
p2707
sa(dp2708
S'Origin'
p2709
S'Indo-Pacific'
p2710
sS'Scientific name'
p2711
S'Dendrochirus biocellatus'
p2712
sS'Family'
p2713
S'Scorpion'
p2714
sS'Other identification'
p2715
S'Twospot Turkeyfish, Fu Manchu Lionfish'
p2716
sS'Size (cm)'
p2717
S'13'
p2718
sS'Recommended tank size'
p2719
S'medium'
p2720
sS'Most used common name'
p2721
S'<a href="http://saltwater.aqua-fish.net/?twospot-turkeyfish">Twospot Turkeyfish</a>'
p2722
sS'Care'
p2723
S'not very difficult'
p2724
sa(dp2725
S'Origin'
p2726
S'Indo-Pacific'
p2727
sS'Scientific name'
p2728
S'Dendrochirus brachypterus'
p2729
sS'Family'
p2730
S'Scorpion'
p2731
sS'Size (cm)'
p2732
S'17'
p2733
sS'Recommended tank size'
p2734
S'medium'
p2735
sS'Most used common name'
p2736
S'<a href="http://saltwater.aqua-fish.net/?shortfin-turkeyfish">Shortfin Turkeyfish</a>'
p2737
sS'Care'
p2738
S'not very difficult'
p2739
sa(dp2740
S'Origin'
p2741
S'almost everywhere in tropical waters'
p2742
sS'Scientific name'
p2743
S'Diodon hystrix'
p2744
sS'Family'
p2745
S'Burrfish'
p2746
sS'Other identification'
p2747
S'Spot-Fin Porcupinefish, Black-Spotted Porcupinefish'
p2748
sS'Size (cm)'
p2749
S'90'
p2750
sS'Recommended tank size'
p2751
S'very large'
p2752
sS'Most used common name'
p2753
S'<a href="http://saltwater.aqua-fish.net/?spot-fin-porcupinefish">Spot-Fin Porcupinefish</a>'
p2754
sS'Care'
p2755
S'difficult'
p2756
sa(dp2757
S'Origin'
p2758
S'Indo-Pacific'
p2759
sS'Scientific name'
p2760
S'Doryrhamphus dactyliophorus'
p2761
sS'Family'
p2762
S'Pipefish'
p2763
sS'Other identification'
p2764
S'Banded Pipefish, Ringed Pipefish'
p2765
sS'Size (cm)'
p2766
S'19'
p2767
sS'Recommended tank size'
p2768
S'large'
p2769
sS'Most used common name'
p2770
S'<a href="http://saltwater.aqua-fish.net/?banded-pipefish">Banded Pipefish</a>'
p2771
sS'Care'
p2772
S'difficult'
p2773
sa(dp2774
S'Origin'
p2775
S'Western Atlantic'
p2776
sS'Scientific name'
p2777
S'Echeneis naucrates'
p2778
sS'Family'
p2779
S'Remora'
p2780
sS'Size (cm)'
p2781
S'100'
p2782
sS'Recommended tank size'
p2783
S'very large'
p2784
sS'Most used common name'
p2785
S'<a href="http://saltwater.aqua-fish.net/?slender-suckerfish">Slender Suckerfish</a>'
p2786
sS'Care'
p2787
S'difficult'
p2788
sa(dp2789
S'Origin'
p2790
S'Indo-Pacific'
p2791
sS'Scientific name'
p2792
S'Echidna nebulosa'
p2793
sS'Family'
p2794
S'Moray Eel'
p2795
sS'Other identification'
p2796
S'Snowflake Moray, Snowflake Eel'
p2797
sS'Size (cm)'
p2798
S'100'
p2799
sS'Recommended tank size'
p2800
S'very large'
p2801
sS'Most used common name'
p2802
S'<a href="http://saltwater.aqua-fish.net/?snowflake-eel">Snowflake Eel</a>'
p2803
sS'Care'
p2804
S'easy'
p2805
sa(dp2806
S'Origin'
p2807
S'Indo-Pacific'
p2808
sS'Scientific name'
p2809
S'Ecsenius bicolor'
p2810
sS'Family'
p2811
S'Combtooth Blenny'
p2812
sS'Size (cm)'
p2813
S'11'
p2814
sS'Recommended tank size'
p2815
S'medium'
p2816
sS'Most used common name'
p2817
S'<a href="http://saltwater.aqua-fish.net/?bicolor-blenny">Bicolor Blenny</a>'
p2818
sS'Care'
p2819
S'not very difficult'
p2820
sa(dp2821
S'Origin'
p2822
S'Indo-Pacific'
p2823
sS'Scientific name'
p2824
S'Ecsenius midas'
p2825
sS'Family'
p2826
S'Combtooth Blenny'
p2827
sS'Other identification'
p2828
S'Persian Blenny, Midas Blenny'
p2829
sS'Size (cm)'
p2830
S'13'
p2831
sS'Recommended tank size'
p2832
S'medium'
p2833
sS'Most used common name'
p2834
S'<a href="http://saltwater.aqua-fish.net/?persian-blenny">Persian Blenny</a>'
p2835
sS'Care'
p2836
S'not very difficult'
p2837
sa(dp2838
S'Origin'
p2839
S'East Atlantic'
p2840
sS'Scientific name'
p2841
S'Ephippion guttifer'
p2842
sS'Family'
p2843
S'Puffer'
p2844
sS'Size (cm)'
p2845
S'80'
p2846
sS'Recommended tank size'
p2847
S'very large'
p2848
sS'Most used common name'
p2849
S'<a href="http://saltwater.aqua-fish.net/?prickly-puffer">Prickly Puffer</a>'
p2850
sS'Care'
p2851
S'difficult'
p2852
sa(dp2853
S'Origin'
p2854
S'Indo-Pacific'
p2855
sS'Scientific name'
p2856
S'Epibulus insidiator'
p2857
sS'Family'
p2858
S'Wrasses'
p2859
sS'Size (cm)'
p2860
S'50'
p2861
sS'Recommended tank size'
p2862
S'large'
p2863
sS'Most used common name'
p2864
S'<a href="http://saltwater.aqua-fish.net/?slingjaw-wrasse">Slingjaw Wrasse</a>'
p2865
sS'Care'
p2866
S'difficult'
p2867
sa(dp2868
S'Origin'
p2869
S'East Atlantic'
p2870
sS'Scientific name'
p2871
S'Epinephelus aeneus'
p2872
sS'Family'
p2873
S'Grouper'
p2874
sS'Size (cm)'
p2875
S'90'
p2876
sS'Recommended tank size'
p2877
S'very large'
p2878
sS'Most used common name'
p2879
S'<a href="http://saltwater.aqua-fish.net/?white-grouper">White Grouper</a>'
p2880
sS'Care'
p2881
S'not very difficult'
p2882
sa(dp2883
S'Origin'
p2884
S'Indo-West Pacific'
p2885
sS'Scientific name'
p2886
S'Epinephelus areolatus'
p2887
sS'Family'
p2888
S'Grouper'
p2889
sS'Size (cm)'
p2890
S'40'
p2891
sS'Recommended tank size'
p2892
S'large'
p2893
sS'Most used common name'
p2894
S'<a href="http://saltwater.aqua-fish.net/?areolate-grouper">Areolate Grouper</a>'
p2895
sS'Care'
p2896
S'not very difficult'
p2897
sa(dp2898
S'Origin'
p2899
S'Indian Ocean'
p2900
sS'Scientific name'
p2901
S'Epinephelus flavocaeruleus'
p2902
sS'Family'
p2903
S'Grouper'
p2904
sS'Size (cm)'
p2905
S'90'
p2906
sS'Recommended tank size'
p2907
S'very large'
p2908
sS'Most used common name'
p2909
S'<a href="http://saltwater.aqua-fish.net/?blue-and-yellow-grouper">Blue And Yellow Grouper</a>'
p2910
sS'Care'
p2911
S'not very difficult'
p2912
sa(dp2913
S'Origin'
p2914
S'Indo-Pacific'
p2915
sS'Scientific name'
p2916
S'Epinephelus lanceolatus'
p2917
sS'Family'
p2918
S'Grouper'
p2919
sS'Size (cm)'
p2920
S'250'
p2921
sS'Recommended tank size'
p2922
S'very large'
p2923
sS'Most used common name'
p2924
S'<a href="http://saltwater.aqua-fish.net/?queensland-grouper">Queensland Grouper</a>'
p2925
sS'Care'
p2926
S'not very difficult'
p2927
sa(dp2928
S'Origin'
p2929
S'East Atlantic'
p2930
sS'Scientific name'
p2931
S'Epinephelus marginatus'
p2932
sS'Family'
p2933
S'Grouper'
p2934
sS'Size (cm)'
p2935
S'150'
p2936
sS'Recommended tank size'
p2937
S'very large'
p2938
sS'Most used common name'
p2939
S'<a href="http://saltwater.aqua-fish.net/?dusky-grouper">Dusky Grouper</a>'
p2940
sS'Care'
p2941
S'difficult'
p2942
sa(dp2943
S'Origin'
p2944
S'Indo-Pacific'
p2945
sS'Scientific name'
p2946
S'Epinephelus merra'
p2947
sS'Family'
p2948
S'Grouper'
p2949
sS'Size (cm)'
p2950
S'30'
p2951
sS'Recommended tank size'
p2952
S'large'
p2953
sS'Most used common name'
p2954
S'<a href="http://saltwater.aqua-fish.net/?honeycomb-grouper">Honeycomb Grouper</a>'
p2955
sS'Care'
p2956
S'easy'
p2957
sa(dp2958
S'Origin'
p2959
S'Western Pacific'
p2960
sS'Scientific name'
p2961
S'Epinephelus quoyanus'
p2962
sS'Family'
p2963
S'Grouper'
p2964
sS'Size (cm)'
p2965
S'40'
p2966
sS'Recommended tank size'
p2967
S'large'
p2968
sS'Most used common name'
p2969
S'<a href="http://saltwater.aqua-fish.net/?longfin-grouper">Longfin Grouper</a>'
p2970
sS'Care'
p2971
S'not very difficult'
p2972
sa(dp2973
S'Origin'
p2974
S'Western Atlantic Coast'
p2975
sS'Scientific name'
p2976
S'Equetus lanceolatus'
p2977
sS'Family'
p2978
S'Drum'
p2979
sS'Size (cm)'
p2980
S'25'
p2981
sS'Recommended tank size'
p2982
S'large'
p2983
sS'Most used common name'
p2984
S'<a href="http://saltwater.aqua-fish.net/?jack-knifefish">Jack-Knifefish</a>'
p2985
sS'Care'
p2986
S'difficult'
p2987
sa(dp2988
S'Origin'
p2989
S'Indo-Pacific'
p2990
sS'Scientific name'
p2991
S'Forcipiger flavissimus'
p2992
sS'Family'
p2993
S'Butterfly Fish'
p2994
sS'Size (cm)'
p2995
S'22'
p2996
sS'Recommended tank size'
p2997
S'large'
p2998
sS'Most used common name'
p2999
S'<a href="http://saltwater.aqua-fish.net/?yellow-longnose-butterfly">Yellow Longnose Butterfly</a>'
p3000
sS'Care'
p3001
S'not very difficult'
p3002
sa(dp3003
S'Origin'
p3004
S'Indo-Pacific'
p3005
sS'Scientific name'
p3006
S'Forcipiger longirostris'
p3007
sS'Family'
p3008
S'Butterfly Fish'
p3009
sS'Size (cm)'
p3010
S'22'
p3011
sS'Recommended tank size'
p3012
S'large'
p3013
sS'Most used common name'
p3014
S'<a href="http://saltwater.aqua-fish.net/?longnose-butterflyfish">Longnose Butterflyfish</a>'
p3015
sS'Care'
p3016
S'easy'
p3017
sa(dp3018
S'Origin'
p3019
S'Indo-West Pacific'
p3020
sS'Scientific name'
p3021
S'Fusigobius longispinus'
p3022
sS'Family'
p3023
S'Goby'
p3024
sS'Size (cm)'
p3025
S'8'
sS'Recommended tank size'
p3026
S'medium'
p3027
sS'Most used common name'
p3028
S'<a href="http://saltwater.aqua-fish.net/?orange-spotted-sand-goby">Orange-Spotted Sand Goby</a>'
p3029
sS'Care'
p3030
S'easy'
p3031
sa(dp3032
S'Origin'
p3033
S'East India'
p3034
sS'Scientific name'
p3035
S'Genicanthus bellus'
p3036
sS'Family'
p3037
S'Angelfish'
p3038
sS'Size (cm)'
p3039
S'18'
p3040
sS'Recommended tank size'
p3041
S'large'
p3042
sS'Most used common name'
p3043
S'<a href="http://saltwater.aqua-fish.net/?ornate-angelfish">Ornate Angelfish</a>'
p3044
sS'Care'
p3045
S'easy'
p3046
sa(dp3047
S'Origin'
p3048
S'Indo-West Pacific'
p3049
sS'Scientific name'
p3050
S'Genicanthus lamarck'
p3051
sS'Family'
p3052
S'Angelfish'
p3053
sS'Size (cm)'
p3054
S'20'
p3055
sS'Recommended tank size'
p3056
S'large'
p3057
sS'Most used common name'
p3058
S'<a href="http://saltwater.aqua-fish.net/?lamarcks-angelfish">Lamarck\'s Angelfish</a>'
p3059
sS'Care'
p3060
S'not very difficult'
p3061
sa(dp3062
S'Origin'
p3063
S'Western Pacific'
p3064
sS'Scientific name'
p3065
S'Genicanthus melanospilos'
p3066
sS'Family'
p3067
S'Angelfish'
p3068
sS'Other identification'
p3069
S'Swallowtail Angel, Blackspot Angelfish'
p3070
sS'Size (cm)'
p3071
S'18'
p3072
sS'Recommended tank size'
p3073
S'medium'
p3074
sS'Most used common name'
p3075
S'<a href="http://saltwater.aqua-fish.net/?swallowtail-angel">Swallowtail Angel</a>'
p3076
sS'Care'
p3077
S'not very difficult'
p3078
sa(dp3079
S'Origin'
p3080
S'Western Pacific'
p3081
sS'Scientific name'
p3082
S'Genicanthus semicinctus'
p3083
sS'Family'
p3084
S'Angelfish'
p3085
sS'Size (cm)'
p3086
S'20'
p3087
sS'Recommended tank size'
p3088
S'large'
p3089
sS'Most used common name'
p3090
S'<a href="http://saltwater.aqua-fish.net/?halfbanded-angelfish">Halfbanded Angelfish</a>'
p3091
sS'Care'
p3092
S'easy'
p3093
sa(dp3094
S'Origin'
p3095
S'Indo-Pacific'
p3096
sS'Scientific name'
p3097
S'Gnathanodon speciosus'
p3098
sS'Family'
p3099
S'Jacks and Pompanos'
p3100
sS'Size (cm)'
p3101
S'110'
p3102
sS'Recommended tank size'
p3103
S'very large'
p3104
sS'Most used common name'
p3105
S'<a href="http://saltwater.aqua-fish.net/?gold-trevally">Gold Trevally</a>'
p3106
sS'Care'
p3107
S'not very difficult'
p3108
sa(dp3109
S'Origin'
p3110
S'Indo-West Pacific'
p3111
sS'Scientific name'
p3112
S'Gobiodon rivulatus'
p3113
sS'Family'
p3114
S'Goby'
p3115
sS'Size (cm)'
p3116
S'5'
sS'Recommended tank size'
p3117
S'medium'
p3118
sS'Most used common name'
p3119
S'<a href="http://saltwater.aqua-fish.net/?rippled-coral-goby">Rippled Coral Goby</a>'
p3120
sS'Care'
p3121
S'easy'
p3122
sa(dp3123
S'Origin'
p3124
S'Indian Ocean'
p3125
sS'Scientific name'
p3126
S'Gomphosus caeruleus'
p3127
sS'Family'
p3128
S'Wrasses'
p3129
sS'Size (cm)'
p3130
S'30'
p3131
sS'Recommended tank size'
p3132
S'large'
p3133
sS'Most used common name'
p3134
S'<a href="http://saltwater.aqua-fish.net/?green-birdmouth-wrasse">Green Birdmouth Wrasse</a>'
p3135
sS'Care'
p3136
S'not very difficult'
p3137
sa(dp3138
S'Origin'
p3139
S'Indo-Pacific'
p3140
sS'Scientific name'
p3141
S'Gomphosus varius'
p3142
sS'Family'
p3143
S'Wrasses'
p3144
sS'Size (cm)'
p3145
S'23'
p3146
sS'Recommended tank size'
p3147
S'large'
p3148
sS'Most used common name'
p3149
S'<a href="http://saltwater.aqua-fish.net/?brown-bird-wrasse">Brown Bird Wrasse</a>'
p3150
sS'Care'
p3151
S'not very difficult'
p3152
sa(dp3153
S'Origin'
p3154
S'Indo-West Pacific'
p3155
sS'Scientific name'
p3156
S'Gorgasia preclara'
p3157
sS'Family'
p3158
S'Garden Eel'
p3159
sS'Size (cm)'
p3160
S'40'
p3161
sS'Recommended tank size'
p3162
S'large'
p3163
sS'Most used common name'
p3164
S'<a href="http://saltwater.aqua-fish.net/?splendid-garden-eel">Splendid Garden Eel</a>'
p3165
sS'Care'
p3166
S'not very difficult'
p3167
sa(dp3168
S'Origin'
p3169
S'Caribbean'
p3170
sS'Scientific name'
p3171
S'Gramma loreto'
p3172
sS'Family'
p3173
S'Basslets'
p3174
sS'Other identification'
p3175
S'Royal Gramma, Fairy Basslet'
p3176
sS'Size (cm)'
p3177
S'8'
sS'Recommended tank size'
p3178
S'medium'
p3179
sS'Most used common name'
p3180
S'<a href="http://saltwater.aqua-fish.net/?royal-gramma">Royal Gramma</a>'
p3181
sS'Care'
p3182
S'easy'
p3183
sa(dp3184
S'Origin'
p3185
S'Caribbean'
p3186
sS'Scientific name'
p3187
S'Gramma melacara'
p3188
sS'Family'
p3189
S'Basslets'
p3190
sS'Other identification'
p3191
S'Black Cap Basslet, Blackcap Gramma'
p3192
sS'Size (cm)'
p3193
S'10'
p3194
sS'Recommended tank size'
p3195
S'medium'
p3196
sS'Most used common name'
p3197
S'<a href="http://saltwater.aqua-fish.net/?black-cap-basslet">Black Cap Basslet</a>'
p3198
sS'Care'
p3199
S'easy'
p3200
sa(dp3201
S'Origin'
p3202
S'Sri Lanka'
p3203
sS'Scientific name'
p3204
S'Grammistes sexlineatus'
p3205
sS'Family'
p3206
S'Grouper'
p3207
sS'Other identification'
p3208
S'Golden Stripe Soapfish Grouper, Skunk Fish'
p3209
sS'Size (cm)'
p3210
S'30'
p3211
sS'Recommended tank size'
p3212
S'large'
p3213
sS'Most used common name'
p3214
S'<a href="http://saltwater.aqua-fish.net/?skunk-fish">Skunk Fish</a>'
p3215
sS'Care'
p3216
S'difficult'
p3217
sa(dp3218
S'Origin'
p3219
S'Indo-Pacific'
p3220
sS'Scientific name'
p3221
S'Gymnomuraena zebra'
p3222
sS'Family'
p3223
S'Moray Eel'
p3224
sS'Other identification'
p3225
S'Zebra Moray Eel, Carpet Eel Blenny, Eared Eel Blenny, Wolf, Green Wolf Eel'
p3226
sS'Size (cm)'
p3227
S'45'
p3228
sS'Recommended tank size'
p3229
S'very large'
p3230
sS'Most used common name'
p3231
S'<a href="http://saltwater.aqua-fish.net/?zebra-moray-eel">Zebra Moray Eel</a>'
p3232
sS'Care'
p3233
S'easy'
p3234
sa(dp3235
S'Origin'
p3236
S'Sri Lanka'
p3237
sS'Scientific name'
p3238
S'Gymnothorax favagineus'
p3239
sS'Family'
p3240
S'Moray Eel'
p3241
sS'Size (cm)'
p3242
S'180'
p3243
sS'Recommended tank size'
p3244
S'very large'
p3245
sS'Most used common name'
p3246
S'<a href="http://saltwater.aqua-fish.net/?honeycomb-moray">Honeycomb Moray</a>'
p3247
sS'Care'
p3248
S'easy'
p3249
sa(dp3250
S'Origin'
p3251
S'South America'
p3252
sS'Scientific name'
p3253
S'Gymnothorax funebris'
p3254
sS'Family'
p3255
S'Moray Eel'
p3256
sS'Other identification'
p3257
S'Green Eel, Golden Eel'
p3258
sS'Size (cm)'
p3259
S'210'
p3260
sS'Recommended tank size'
p3261
S'very large'
p3262
sS'Most used common name'
p3263
S'<a href="http://saltwater.aqua-fish.net/?green-eel">Green Eel</a>'
p3264
sS'Care'
p3265
S'difficult'
p3266
sa(dp3267
S'Origin'
p3268
S'Indo-Pacific'
p3269
sS'Scientific name'
p3270
S'Gymnothorax meleagris'
p3271
sS'Family'
p3272
S'Moray Eel'
p3273
sS'Size (cm)'
p3274
S'120'
p3275
sS'Recommended tank size'
p3276
S'very large'
p3277
sS'Most used common name'
p3278
S'<a href="http://saltwater.aqua-fish.net/?turkey-moray">Turkey Moray</a>'
p3279
sS'Care'
p3280
S'difficult'
p3281
sa(dp3282
S'Origin'
p3283
S'Western Atlantic'
p3284
sS'Scientific name'
p3285
S'Gymnothorax miliaris'
p3286
sS'Family'
p3287
S'Moray Eel'
p3288
sS'Size (cm)'
p3289
S'70'
p3290
sS'Recommended tank size'
p3291
S'very large'
p3292
sS'Most used common name'
p3293
S'<a href="http://saltwater.aqua-fish.net/?goldentail-moray">Goldentail Moray</a>'
p3294
sS'Care'
p3295
S'not very difficult'
p3296
sa(dp3297
S'Origin'
p3298
S'Eastern Pacific'
p3299
sS'Scientific name'
p3300
S'Gymnothorax mordax'
p3301
sS'Family'
p3302
S'Moray Eel'
p3303
sS'Size (cm)'
p3304
S'150'
p3305
sS'Recommended tank size'
p3306
S'very large'
p3307
sS'Most used common name'
p3308
S'<a href="http://saltwater.aqua-fish.net/?california-moray">California Moray</a>'
p3309
sS'Care'
p3310
S'difficult'
p3311
sa(dp3312
S'Origin'
p3313
S'Indo-Pacific'
p3314
sS'Scientific name'
p3315
S'Gymnothorax pictus'
p3316
sS'Family'
p3317
S'Moray Eel'
p3318
sS'Size (cm)'
p3319
S'140'
p3320
sS'Recommended tank size'
p3321
S'very large'
p3322
sS'Most used common name'
p3323
S'<a href="http://saltwater.aqua-fish.net/?peppered-moray">Peppered Moray</a>'
p3324
sS'Care'
p3325
S'difficult'
p3326
sa(dp3327
S'Origin'
p3328
S'Indo-Pacific'
p3329
sS'Scientific name'
p3330
S'Gymnothorax thyrsoideus'
p3331
sS'Family'
p3332
S'Moray Eel'
p3333
sS'Size (cm)'
p3334
S'65'
p3335
sS'Recommended tank size'
p3336
S'very large'
p3337
sS'Most used common name'
p3338
S'<a href="http://saltwater.aqua-fish.net/?greyface-moray">Greyface Moray</a>'
p3339
sS'Care'
p3340
S'difficult'
p3341
sa(dp3342
S'Origin'
p3343
S'Indo-Pacific'
p3344
sS'Scientific name'
p3345
S'Gymnothorax undulatus'
p3346
sS'Family'
p3347
S'Moray Eel'
p3348
sS'Size (cm)'
p3349
S'150'
p3350
sS'Recommended tank size'
p3351
S'very large'
p3352
sS'Most used common name'
p3353
S'<a href="http://saltwater.aqua-fish.net/?undulated-moray">Undulated Moray</a>'
p3354
sS'Care'
p3355
S'difficult'
p3356
sa(dp3357
S'Origin'
p3358
S'Western Atlantic'
p3359
sS'Scientific name'
p3360
S'Haemulon flavolineatum'
p3361
sS'Family'
p3362
S'Grunts'
p3363
sS'Size (cm)'
p3364
S'30'
p3365
sS'Recommended tank size'
p3366
S'large'
p3367
sS'Most used common name'
p3368
S'<a href="http://saltwater.aqua-fish.net/?french-grunt">French Grunt</a>'
p3369
sS'Care'
p3370
S'not very difficult'
p3371
sa(dp3372
S'Origin'
p3373
S'Western Atlantic'
p3374
sS'Scientific name'
p3375
S'Haemulon sciurus'
p3376
sS'Family'
p3377
S'Grunts'
p3378
sS'Size (cm)'
p3379
S'46'
p3380
sS'Recommended tank size'
p3381
S'large'
p3382
sS'Most used common name'
p3383
S'<a href="http://saltwater.aqua-fish.net/?bluestriped-grunt">Bluestriped Grunt</a>'
p3384
sS'Care'
p3385
S'not very difficult'
p3386
sa(dp3387
S'Origin'
p3388
S'Indo-Pacific'
p3389
sS'Scientific name'
p3390
S'Halichoeres chloropterus'
p3391
sS'Family'
p3392
S'Wrasses'
p3393
sS'Size (cm)'
p3394
S'20'
p3395
sS'Recommended tank size'
p3396
S'large'
p3397
sS'Most used common name'
p3398
S'<a href="http://saltwater.aqua-fish.net/?green-wrasse">Green Wrasse</a>'
p3399
sS'Care'
p3400
S'difficult'
p3401
sa(dp3402
S'Origin'
p3403
S'Indo-Pacific'
p3404
sS'Scientific name'
p3405
S'Halichoeres chrysus'
p3406
sS'Family'
p3407
S'Wrasses'
p3408
sS'Size (cm)'
p3409
S'13'
p3410
sS'Recommended tank size'
p3411
S'medium'
p3412
sS'Most used common name'
p3413
S'<a href="http://saltwater.aqua-fish.net/?golden-coris-wrasse">Golden Coris Wrasse</a>'
p3414
sS'Care'
p3415
S'difficult'
p3416
sa(dp3417
S'Origin'
p3418
S'Indo-Pacific'
p3419
sS'Scientific name'
p3420
S'Halichoeres cyanocephalus'
p3421
sS'Family'
p3422
S'Wrasses'
p3423
sS'Size (cm)'
p3424
S'13'
p3425
sS'Recommended tank size'
p3426
S'medium'
p3427
sS'Most used common name'
p3428
S'<a href="http://saltwater.aqua-fish.net/?lighting-wrasse">Lighting Wrasse</a>'
p3429
sS'Care'
p3430
S'not very difficult'
p3431
sa(dp3432
S'Origin'
p3433
S'Indian Ocean'
p3434
sS'Scientific name'
p3435
S'Halichoeres hortulanus'
p3436
sS'Family'
p3437
S'Wrasses'
p3438
sS'Size (cm)'
p3439
S'28'
p3440
sS'Recommended tank size'
p3441
S'large'
p3442
sS'Most used common name'
p3443
S'<a href="http://saltwater.aqua-fish.net/?checkerboard-wrasse">Checkerboard Wrasse</a>'
p3444
sS'Care'
p3445
S'difficult'
p3446
sa(dp3447
S'Origin'
p3448
S'Africa'
p3449
sS'Scientific name'
p3450
S'Halichoeres iridis'
p3451
sS'Family'
p3452
S'Wrasses'
p3453
sS'Size (cm)'
p3454
S'10'
p3455
sS'Recommended tank size'
p3456
S'medium'
p3457
sS'Most used common name'
p3458
S'<a href="http://saltwater.aqua-fish.net/?radiant-wrasse">Radiant Wrasse</a>'
p3459
sS'Care'
p3460
S'not very difficult'
p3461
sa(dp3462
S'Origin'
p3463
S'Indian Ocean'
p3464
sS'Scientific name'
p3465
S'Halichoeres leucoxanthus'
p3466
sS'Family'
p3467
S'Wrasses'
p3468
sS'Size (cm)'
p3469
S'12'
p3470
sS'Recommended tank size'
p3471
S'medium'
p3472
sS'Most used common name'
p3473
S'<a href="http://saltwater.aqua-fish.net/?whitebelly-wrasse">Whitebelly Wrasse</a>'
p3474
sS'Care'
p3475
S'not very difficult'
p3476
sa(dp3477
S'Origin'
p3478
S'Western Atlantic'
p3479
sS'Scientific name'
p3480
S'Halichoeres maculipinna'
p3481
sS'Family'
p3482
S'Wrasses'
p3483
sS'Size (cm)'
p3484
S'18'
p3485
sS'Recommended tank size'
p3486
S'medium'
p3487
sS'Most used common name'
p3488
S'<a href="http://saltwater.aqua-fish.net/?clown-wrasse">Clown Wrasse</a>'
p3489
sS'Care'
p3490
S'not very difficult'
p3491
sa(dp3492
S'Origin'
p3493
S'Indo-Pacific'
p3494
sS'Scientific name'
p3495
S'Halichoeres marginatus'
p3496
sS'Family'
p3497
S'Wrasses'
p3498
sS'Size (cm)'
p3499
S'18'
p3500
sS'Recommended tank size'
p3501
S'medium'
p3502
sS'Most used common name'
p3503
S'<a href="http://saltwater.aqua-fish.net/?dusky-wrasse">Dusky Wrasse</a>'
p3504
sS'Care'
p3505
S'not very difficult'
p3506
sa(dp3507
S'Origin'
p3508
S'Western Pacific'
p3509
sS'Scientific name'
p3510
S'Halichoeres melanurus'
p3511
sS'Family'
p3512
S'Wrasses'
p3513
sS'Size (cm)'
p3514
S'12'
p3515
sS'Recommended tank size'
p3516
S'medium'
p3517
sS'Most used common name'
p3518
S'<a href="http://saltwater.aqua-fish.net/?tail-pot-wrasse">Tail-Pot Wrasse</a>'
p3519
sS'Care'
p3520
S'not very difficult'
p3521
sa(dp3522
S'Origin'
p3523
S'Western Pacific'
p3524
sS'Scientific name'
p3525
S'Halichoeres poecilopterus'
p3526
sS'Family'
p3527
S'Wrasses'
p3528
sS'Size (cm)'
p3529
S'34'
p3530
sS'Recommended tank size'
p3531
S'large'
p3532
sS'Most used common name'
p3533
S'<a href="http://saltwater.aqua-fish.net/?wrasse">Wrasse</a>'
p3534
sS'Care'
p3535
S'not very difficult'
p3536
sa(dp3537
S'Origin'
p3538
S'Indo-West Pacific'
p3539
sS'Scientific name'
p3540
S'Halichoeres scapularis'
p3541
sS'Family'
p3542
S'Wrasses'
p3543
sS'Size (cm)'
p3544
S'20'
p3545
sS'Recommended tank size'
p3546
S'large'
p3547
sS'Most used common name'
p3548
S'<a href="http://saltwater.aqua-fish.net/?zigzag-wrasse">Zigzag Wrasse</a>'
p3549
sS'Care'
p3550
S'not very difficult'
p3551
sa(dp3552
S'Origin'
p3553
S'Indo-Pacific'
p3554
sS'Scientific name'
p3555
S'Hemigymnus fasciatus'
p3556
sS'Family'
p3557
S'Wrasses'
p3558
sS'Other identification'
p3559
S'Five Banded Wrasse, Barred Thicklip'
p3560
sS'Size (cm)'
p3561
S'80'
p3562
sS'Recommended tank size'
p3563
S'very large'
p3564
sS'Most used common name'
p3565
S'<a href="http://saltwater.aqua-fish.net/?five-banded-wrasse">Five Banded Wrasse</a>'
p3566
sS'Care'
p3567
S'difficult'
p3568
sa(dp3569
S'Origin'
p3570
S'Indo-Pacific'
p3571
sS'Scientific name'
p3572
S'Hemigymnus melapterus'
p3573
sS'Family'
p3574
S'Wrasses'
p3575
sS'Size (cm)'
p3576
S'90'
p3577
sS'Recommended tank size'
p3578
S'very large'
p3579
sS'Most used common name'
p3580
S'<a href="http://saltwater.aqua-fish.net/?blackeye-thicklip">Blackeye Thicklip</a>'
p3581
sS'Care'
p3582
S'difficult'
p3583
sa(dp3584
S'Origin'
p3585
S'Indo-West Pacific'
p3586
sS'Scientific name'
p3587
S'Hemiramphus far'
p3588
sS'Family'
p3589
S'Halfbeaks'
p3590
sS'Size (cm)'
p3591
S'45'
p3592
sS'Recommended tank size'
p3593
S'very large'
p3594
sS'Most used common name'
p3595
S'<a href="http://saltwater.aqua-fish.net/?blackbarred-halfbeak">Blackbarred Halfbeak</a>'
p3596
sS'Care'
p3597
S'easy'
p3598
sa(dp3599
S'Origin'
p3600
S'Pacific Ocean'
p3601
sS'Scientific name'
p3602
S'Hemiramphus lutkei'
p3603
sS'Family'
p3604
S'Halfbeaks'
p3605
sS'Size (cm)'
p3606
S'40'
p3607
sS'Recommended tank size'
p3608
S'large'
p3609
sS'Most used common name'
p3610
S'<a href="http://saltwater.aqua-fish.net/?lutkes-halfbeak">Lutke\'s Halfbeak</a>'
p3611
sS'Care'
p3612
S'easy'
p3613
sa(dp3614
S'Origin'
p3615
S'Western Pacific'
p3616
sS'Scientific name'
p3617
S'Hemiscyllium ocellatum'
p3618
sS'Family'
p3619
S'Bamboo Shark'
p3620
sS'Size (cm)'
p3621
S'107'
p3622
sS'Recommended tank size'
p3623
S'very large'
p3624
sS'Most used common name'
p3625
S'<a href="http://saltwater.aqua-fish.net/?epaulette-shark">Epaulette Shark</a>'
p3626
sS'Care'
p3627
S'difficult'
p3628
sa(dp3629
S'Origin'
p3630
S'Pacific Ocean'
p3631
sS'Scientific name'
p3632
S'Hemitaurichthys polylepis'
p3633
sS'Family'
p3634
S'Butterfly Fish'
p3635
sS'Other identification'
p3636
S'Pyramid Butterflyfish, Brushytoothed Butterflyfish'
p3637
sS'Size (cm)'
p3638
S'18'
p3639
sS'Recommended tank size'
p3640
S'medium'
p3641
sS'Most used common name'
p3642
S'<a href="http://saltwater.aqua-fish.net/?pyramid-butterflyfish">Pyramid Butterflyfish</a>'
p3643
sS'Care'
p3644
S'easy'
p3645
sa(dp3646
S'Origin'
p3647
S'Indo-Pacific'
p3648
sS'Scientific name'
p3649
S'Heniochus acuminatus'
p3650
sS'Family'
p3651
S'Butterfly Fish'
p3652
sS'Other identification'
p3653
S'Black and White Heniochus Butterfly, Pennant Coralfish'
p3654
sS'Size (cm)'
p3655
S'25'
p3656
sS'Recommended tank size'
p3657
S'large'
p3658
sS'Most used common name'
p3659
S'<a href="http://saltwater.aqua-fish.net/?pennant-coralfish">Pennant Coralfish</a>'
p3660
sS'Care'
p3661
S'easy'
p3662
sa(dp3663
S'Origin'
p3664
S'Indo-Pacific'
p3665
sS'Scientific name'
p3666
S'Heniochus diphreutes'
p3667
sS'Family'
p3668
S'Butterfly Fish'
p3669
sS'Size (cm)'
p3670
S'21'
p3671
sS'Recommended tank size'
p3672
S'large'
p3673
sS'Most used common name'
p3674
S'<a href="http://saltwater.aqua-fish.net/?false-moorish-idol">False Moorish Idol</a>'
p3675
sS'Care'
p3676
S'easy'
p3677
sa(dp3678
S'Origin'
p3679
S'Pacific Ocean'
p3680
sS'Scientific name'
p3681
S'Heniochus singularius'
p3682
sS'Family'
p3683
S'Butterfly Fish'
p3684
sS'Size (cm)'
p3685
S'30'
p3686
sS'Recommended tank size'
p3687
S'large'
p3688
sS'Most used common name'
p3689
S'<a href="http://saltwater.aqua-fish.net/?singular-bannerfish">Singular Bannerfish</a>'
p3690
sS'Care'
p3691
S'easy'
p3692
sa(dp3693
S'Origin'
p3694
S'Pacific Ocean'
p3695
sS'Scientific name'
p3696
S'Heniochus varius'
p3697
sS'Family'
p3698
S'Butterfly Fish'
p3699
sS'Other identification'
p3700
S'Brown Heniochus Butterfly, Horned Bannerfish'
p3701
sS'Size (cm)'
p3702
S'19'
p3703
sS'Recommended tank size'
p3704
S'large'
p3705
sS'Most used common name'
p3706
S'<a href="http://saltwater.aqua-fish.net/?horned-bannerfish">Horned Bannerfish</a>'
p3707
sS'Care'
p3708
S'not very difficult'
p3709
sa(dp3710
S'Origin'
p3711
S'Indo-Pacific'
p3712
sS'Scientific name'
p3713
S'Heteroconger hassi'
p3714
sS'Family'
p3715
S'Garden Eel'
p3716
sS'Size (cm)'
p3717
S'40'
p3718
sS'Recommended tank size'
p3719
S'large'
p3720
sS'Most used common name'
p3721
S'<a href="http://saltwater.aqua-fish.net/?spotted-garden-eel">Spotted Garden-Eel</a>'
p3722
sS'Care'
p3723
S'not very difficult'
p3724
sa(dp3725
S'Origin'
p3726
S'Eastern Pacific'
p3727
sS'Scientific name'
p3728
S'Heterodontus francisci'
p3729
sS'Family'
p3730
S'Bullhead Shark'
p3731
sS'Size (cm)'
p3732
S'122'
p3733
sS'Recommended tank size'
p3734
S'very large'
p3735
sS'Most used common name'
p3736
S'<a href="http://saltwater.aqua-fish.net/?horn-shark">Horn Shark</a>'
p3737
sS'Care'
p3738
S'difficult'
p3739
sa(dp3740
S'Origin'
p3741
S'Western Pacific'
p3742
sS'Scientific name'
p3743
S'Heterodontus portusjacksoni'
p3744
sS'Family'
p3745
S'Bullhead Shark'
p3746
sS'Size (cm)'
p3747
S'165'
p3748
sS'Recommended tank size'
p3749
S'very large'
p3750
sS'Most used common name'
p3751
S'<a href="http://saltwater.aqua-fish.net/?port-jackson-shark">Port Jackson Shark</a>'
p3752
sS'Care'
p3753
S'difficult'
p3754
sa(dp3755
S'Origin'
p3756
S'Central America Coast'
p3757
sS'Scientific name'
p3758
S'Hexanematichthys seemanni'
p3759
sS'Family'
p3760
S'Sea Catfish'
p3761
sS'Other identification'
p3762
S'Shark Catfish, Tete Sea Catfish'
p3763
sS'Size (cm)'
p3764
S'35'
p3765
sS'Recommended tank size'
p3766
S'large'
p3767
sS'Most used common name'
p3768
S'<a href="http://saltwater.aqua-fish.net/?shark-catfish">Shark Catfish</a>'
p3769
sS'Care'
p3770
S'not very difficult'
p3771
sa(dp3772
S'Origin'
p3773
S'Indo-Pacific'
p3774
sS'Scientific name'
p3775
S'Himantura gerrardi'
p3776
sS'Family'
p3777
S'Stingray'
p3778
sS'Size (cm)'
p3779
S'200'
p3780
sS'Recommended tank size'
p3781
S'very large'
p3782
sS'Most used common name'
p3783
S'<a href="http://saltwater.aqua-fish.net/?sharpnose-stingray">Sharpnose Stingray</a>'
p3784
sS'Care'
p3785
S'difficult'
p3786
sa(dp3787
S'Origin'
p3788
S'Indo-Pacific'
p3789
sS'Scientific name'
p3790
S'Himantura jenkinsii'
p3791
sS'Family'
p3792
S'Stingray'
p3793
sS'Size (cm)'
p3794
S'104'
p3795
sS'Recommended tank size'
p3796
S'very large'
p3797
sS'Most used common name'
p3798
S'<a href="http://saltwater.aqua-fish.net/?pointed-nose-stingray">Pointed-Nose Stingray</a>'
p3799
sS'Care'
p3800
S'difficult'
p3801
sa(dp3802
S'Origin'
p3803
S'Western Pacific'
p3804
sS'Scientific name'
p3805
S'Himantura walga'
p3806
sS'Family'
p3807
S'Stingray'
p3808
sS'Size (cm)'
p3809
S'45'
p3810
sS'Recommended tank size'
p3811
S'very large'
p3812
sS'Most used common name'
p3813
S'<a href="http://saltwater.aqua-fish.net/?dwarf-whipray">Dwarf Whipray</a>'
p3814
sS'Care'
p3815
S'difficult'
p3816
sa(dp3817
S'Origin'
p3818
S'Western Central Pacific'
p3819
sS'Scientific name'
p3820
S'Hippocampus barbouri'
p3821
sS'Family'
p3822
S'Seahorse'
p3823
sS'Size (cm)'
p3824
S'15'
p3825
sS'Recommended tank size'
p3826
S'medium'
p3827
sS'Most used common name'
p3828
S'<a href="http://saltwater.aqua-fish.net/?barbours-seahorse">Barbour\'s Seahorse</a>'
p3829
sS'Care'
p3830
S'not very difficult'
p3831
sa(dp3832
S'Origin'
p3833
S'Southeast Atlantic'
p3834
sS'Scientific name'
p3835
S'Hippocampus capensis'
p3836
sS'Family'
p3837
S'Seahorse'
p3838
sS'Size (cm)'
p3839
S'12'
p3840
sS'Recommended tank size'
p3841
S'medium'
p3842
sS'Most used common name'
p3843
S'<a href="http://saltwater.aqua-fish.net/?knysna-seahorse">Knysna Seahorse</a>'
p3844
sS'Care'
p3845
S'difficult'
p3846
sa(dp3847
S'Origin'
p3848
S'Northwest Pacific Ocean'
p3849
sS'Scientific name'
p3850
S'Hippocampus coronatus'
p3851
sS'Family'
p3852
S'Seahorse'
p3853
sS'Size (cm)'
p3854
S'11'
p3855
sS'Recommended tank size'
p3856
S'medium'
p3857
sS'Most used common name'
p3858
S'<a href="http://saltwater.aqua-fish.net/?crowned-seahorse">Crowned Seahorse</a>'
p3859
sS'Care'
p3860
S'not very difficult'
p3861
sa(dp3862
S'Origin'
p3863
S'Western Pacific'
p3864
sS'Scientific name'
p3865
S'Hippocampus erectus'
p3866
sS'Family'
p3867
S'Seahorse'
p3868
sS'Size (cm)'
p3869
S'19'
p3870
sS'Recommended tank size'
p3871
S'medium'
p3872
sS'Most used common name'
p3873
S'<a href="http://saltwater.aqua-fish.net/?erectus-seahorse">Erectus Seahorse</a>'
p3874
sS'Care'
p3875
S'difficult'
p3876
sa(dp3877
S'Origin'
p3878
S'East Atlantic'
p3879
sS'Scientific name'
p3880
S'Hippocampus guttulatus'
p3881
sS'Family'
p3882
S'Seahorse'
p3883
sS'Size (cm)'
p3884
S'16'
p3885
sS'Recommended tank size'
p3886
S'medium'
p3887
sS'Most used common name'
p3888
S'<a href="http://saltwater.aqua-fish.net/?long-snouted-seahorse">Long-Snouted Seahorse</a>'
p3889
sS'Care'
p3890
S'difficult'
p3891
sa(dp3892
S'Origin'
p3893
S'Indo-Pacific'
p3894
sS'Scientific name'
p3895
S'Hippocampus kuda'
p3896
sS'Family'
p3897
S'Seahorse'
p3898
sS'Size (cm)'
p3899
S'30'
p3900
sS'Recommended tank size'
p3901
S'large'
p3902
sS'Most used common name'
p3903
S'<a href="http://saltwater.aqua-fish.net/?spotted-seahorse">Spotted Seahorse</a>'
p3904
sS'Care'
p3905
S'difficult'
p3906
sa(dp3907
S'Origin'
p3908
S'Western Atlantic'
p3909
sS'Scientific name'
p3910
S'Hippocampus reidi'
p3911
sS'Family'
p3912
S'Seahorse'
p3913
sS'Size (cm)'
p3914
S'17'
p3915
sS'Recommended tank size'
p3916
S'medium'
p3917
sS'Most used common name'
p3918
S'<a href="http://saltwater.aqua-fish.net/?longsnout-seahorse">Longsnout Seahorse</a>'
p3919
sS'Care'
p3920
S'difficult'
p3921
sa(dp3922
S'Origin'
p3923
S'Western Atlantic'
p3924
sS'Scientific name'
p3925
S'Holacanthus bermudensis'
p3926
sS'Family'
p3927
S'Angelfish'
p3928
sS'Size (cm)'
p3929
S'45'
p3930
sS'Recommended tank size'
p3931
S'very large'
p3932
sS'Most used common name'
p3933
S'<a href="http://saltwater.aqua-fish.net/?blue-angelfish">Blue Angelfish</a>'
p3934
sS'Care'
p3935
S'difficult'
p3936
sa(dp3937
S'Origin'
p3938
S'Western Atlantic'
p3939
sS'Scientific name'
p3940
S'Holacanthus ciliaris'
p3941
sS'Family'
p3942
S'Angelfish'
p3943
sS'Size (cm)'
p3944
S'45'
p3945
sS'Recommended tank size'
p3946
S'large'
p3947
sS'Most used common name'
p3948
S'<a href="http://saltwater.aqua-fish.net/?queen-angelfish">Queen Angelfish</a>'
p3949
sS'Care'
p3950
S'not very difficult'
p3951
sa(dp3952
S'Origin'
p3953
S'Eastern Central Pacific'
p3954
sS'Scientific name'
p3955
S'Holacanthus clarionensis'
p3956
sS'Family'
p3957
S'Angelfish'
p3958
sS'Size (cm)'
p3959
S'30'
p3960
sS'Recommended tank size'
p3961
S'very large'
p3962
sS'Most used common name'
p3963
S'<a href="http://saltwater.aqua-fish.net/?clarion-angelfish">Clarion Angelfish</a>'
p3964
sS'Care'
p3965
S'not very difficult'
p3966
sa(dp3967
S'Origin'
p3968
S'Eastern Pacific'
p3969
sS'Scientific name'
p3970
S'Holacanthus passer'
p3971
sS'Family'
p3972
S'Angelfish'
p3973
sS'Size (cm)'
p3974
S'35'
p3975
sS'Recommended tank size'
p3976
S'large'
p3977
sS'Most used common name'
p3978
S'<a href="http://saltwater.aqua-fish.net/?king-angelfish">King Angelfish</a>'
p3979
sS'Care'
p3980
S'not very difficult'
p3981
sa(dp3982
S'Origin'
p3983
S'Western Atlantic'
p3984
sS'Scientific name'
p3985
S'Holacanthus tricolor'
p3986
sS'Family'
p3987
S'Angelfish'
p3988
sS'Size (cm)'
p3989
S'35'
p3990
sS'Recommended tank size'
p3991
S'large'
p3992
sS'Most used common name'
p3993
S'<a href="http://saltwater.aqua-fish.net/?rock-beauty-angelfish">Rock Beauty Angelfish</a>'
p3994
sS'Care'
p3995
S'difficult'
p3996
sa(dp3997
S'Origin'
p3998
S'Indo-Pacific'
p3999
sS'Scientific name'
p4000
S'Hologymnosus annulatus'
p4001
sS'Family'
p4002
S'Wrasses'
p4003
sS'Size (cm)'
p4004
S'40'
p4005
sS'Recommended tank size'
p4006
S'large'
p4007
sS'Most used common name'
p4008
S'<a href="http://saltwater.aqua-fish.net/?ring-wrasse">Ring Wrasse</a>'
p4009
sS'Care'
p4010
S'not very difficult'
p4011
sa(dp4012
S'Origin'
p4013
S'Indo-Pacific'
p4014
sS'Scientific name'
p4015
S'Hoplolatilus fourmanoiri'
p4016
sS'Family'
p4017
S'Tilefish'
p4018
sS'Size (cm)'
p4019
S'14'
p4020
sS'Recommended tank size'
p4021
S'medium'
p4022
sS'Most used common name'
p4023
S'<a href="http://saltwater.aqua-fish.net/?yellow-spotted-tilefish">Yellow-Spotted Tilefish</a>'
p4024
sS'Care'
p4025
S'not very difficult'
p4026
sa(dp4027
S'Origin'
p4028
S'Western Central Pacific'
p4029
sS'Scientific name'
p4030
S'Hoplolatilus purpureus'
p4031
sS'Family'
p4032
S'Tilefish'
p4033
sS'Size (cm)'
p4034
S'13'
p4035
sS'Recommended tank size'
p4036
S'medium'
p4037
sS'Most used common name'
p4038
S'<a href="http://saltwater.aqua-fish.net/?purple-tilefish-goby">Purple Sand Tilefish</a>'
p4039
sS'Care'
p4040
S'not very difficult'
p4041
sa(dp4042
S'Origin'
p4043
S'Western Atlantic'
p4044
sS'Scientific name'
p4045
S'Hyporhamphus unifasciatus'
p4046
sS'Family'
p4047
S'Halfbeaks'
p4048
sS'Size (cm)'
p4049
S'30'
p4050
sS'Recommended tank size'
p4051
S'large'
p4052
sS'Most used common name'
p4053
S'<a href="http://saltwater.aqua-fish.net/?common-halfbeak">Common Halfbeak</a>'
p4054
sS'Care'
p4055
S'not very difficult'
p4056
sa(dp4057
S'Origin'
p4058
S'Eastern Central Pacific'
p4059
sS'Scientific name'
p4060
S'Hypsypops rubicundus'
p4061
sS'Family'
p4062
S'Damsel'
p4063
sS'Size (cm)'
p4064
S'30'
p4065
sS'Recommended tank size'
p4066
S'large'
p4067
sS'Most used common name'
p4068
S'<a href="http://saltwater.aqua-fish.net/?garibaldi-damselfish">Garibaldi Damselfish</a>'
p4069
sS'Care'
p4070
S'difficult'
p4071
sa(dp4072
S'Origin'
p4073
S'Indo-West Pacific'
p4074
sS'Scientific name'
p4075
S'Inimicus didactylus'
p4076
sS'Family'
p4077
S'Stonefish'
p4078
sS'Size (cm)'
p4079
S'25'
p4080
sS'Recommended tank size'
p4081
S'large'
p4082
sS'Most used common name'
p4083
S'<a href="http://saltwater.aqua-fish.net/?bearded-ghoul">Bearded Ghoul</a>'
p4084
sS'Care'
p4085
S'not very difficult'
p4086
sa(dp4087
S'Origin'
p4088
S'Indo-Pacific'
p4089
sS'Scientific name'
p4090
S'Kuhlia mugil'
p4091
sS'Family'
p4092
S'Aholeholes'
p4093
sS'Size (cm)'
p4094
S'40'
p4095
sS'Recommended tank size'
p4096
S'large'
p4097
sS'Most used common name'
p4098
S'<a href="http://saltwater.aqua-fish.net/?barred-flagtail">Barred Flagtail</a>'
p4099
sS'Care'
p4100
S'difficult'
p4101
sa(dp4102
S'Origin'
p4103
S'Indo-Pacific'
p4104
sS'Scientific name'
p4105
S'Labroides bicolor'
p4106
sS'Family'
p4107
S'Wrasses'
p4108
sS'Size (cm)'
p4109
S'15'
p4110
sS'Recommended tank size'
p4111
S'medium'
p4112
sS'Most used common name'
p4113
S'<a href="http://saltwater.aqua-fish.net/?bicolor-cleaner-wrasse">Bicolor Cleaner Wrasse</a>'
p4114
sS'Care'
p4115
S'easy'
p4116
sa(dp4117
S'Origin'
p4118
S'Indo-Pacific'
p4119
sS'Scientific name'
p4120
S'Labroides dimidiatus'
p4121
sS'Family'
p4122
S'Wrasses'
p4123
sS'Size (cm)'
p4124
S'14'
p4125
sS'Recommended tank size'
p4126
S'medium'
p4127
sS'Most used common name'
p4128
S'<a href="http://saltwater.aqua-fish.net/?bluestreak-cleaner-wrasse">Bluestreak Cleaner Wrasse</a>'
p4129
sS'Care'
p4130
S'difficult'
p4131
sa(dp4132
S'Origin'
p4133
S'Western Atlantic'
p4134
sS'Scientific name'
p4135
S'Lactophrys bicaudalis'
p4136
sS'Family'
p4137
S'Boxfish'
p4138
sS'Size (cm)'
p4139
S'48'
p4140
sS'Recommended tank size'
p4141
S'large'
p4142
sS'Most used common name'
p4143
S'<a href="http://saltwater.aqua-fish.net/?spotted-trunkfish">Spotted Trunkfish</a>'
p4144
sS'Care'
p4145
S'not very difficult'
p4146
sa(dp4147
S'Origin'
p4148
S'Indo-Pacific'
p4149
sS'Scientific name'
p4150
S'Lactoria cornuta'
p4151
sS'Family'
p4152
S'Boxfish'
p4153
sS'Size (cm)'
p4154
S'45'
p4155
sS'Recommended tank size'
p4156
S'large'
p4157
sS'Most used common name'
p4158
S'<a href="http://saltwater.aqua-fish.net/?longhorn-cowfish">Longhorn Cowfish</a>'
p4159
sS'Care'
p4160
S'difficult'
p4161
sa(dp4162
S'Origin'
p4163
S'Indo-West Pacific'
p4164
sS'Scientific name'
p4165
S'Lagocephalus lunaris'
p4166
sS'Family'
p4167
S'Puffer'
p4168
sS'Size (cm)'
p4169
S'45'
p4170
sS'Recommended tank size'
p4171
S'large'
p4172
sS'Most used common name'
p4173
S'<a href="http://saltwater.aqua-fish.net/?green-rough-backed-puffer">Green Rough-Backed Puffer</a>'
p4174
sS'Care'
p4175
S'not very difficult'
p4176
sa(dp4177
S'Origin'
p4178
S'Indo-West Pacific'
p4179
sS'Scientific name'
p4180
S'Lagocephalus sceleratus'
p4181
sS'Family'
p4182
S'Puffer'
p4183
sS'Size (cm)'
p4184
S'110'
p4185
sS'Recommended tank size'
p4186
S'very large'
p4187
sS'Most used common name'
p4188
S'<a href="http://saltwater.aqua-fish.net/?silverstripe-blaasop">Silverstripe Blaasop</a>'
p4189
sS'Care'
p4190
S'difficult'
p4191
sa(dp4192
S'Origin'
p4193
S'Western Atlantic'
p4194
sS'Scientific name'
p4195
S'Lagodon rhomboides'
p4196
sS'Family'
p4197
S'Porgie'
p4198
sS'Size (cm)'
p4199
S'40'
p4200
sS'Recommended tank size'
p4201
S'large'
p4202
sS'Most used common name'
p4203
S'<a href="http://saltwater.aqua-fish.net/?pinfish">Pinfish</a>'
p4204
sS'Care'
p4205
S'not very difficult'
p4206
sa(dp4207
S'Origin'
p4208
S'the Red Sea'
p4209
sS'Scientific name'
p4210
S'Larabicus quadrilineatus'
p4211
sS'Family'
p4212
S'Wrasses'
p4213
sS'Other identification'
p4214
S'Fourline Wrasse, Four Line Cleaner Wrasse, Red Sea Cleaner Wrasse'
p4215
sS'Size (cm)'
p4216
S'12'
p4217
sS'Recommended tank size'
p4218
S'medium'
p4219
sS'Most used common name'
p4220
S'<a href="http://saltwater.aqua-fish.net/?fourline-wrasse">Fourline Wrasse</a>'
p4221
sS'Care'
p4222
S'difficult'
p4223
sa(dp4224
S'Origin'
p4225
S'Indo-West Pacific'
p4226
sS'Scientific name'
p4227
S'Leiognathus leuciscus'
p4228
sS'Family'
p4229
S'Ponyfish'
p4230
sS'Size (cm)'
p4231
S'25'
p4232
sS'Recommended tank size'
p4233
S'large'
p4234
sS'Most used common name'
p4235
S'<a href="http://saltwater.aqua-fish.net/?whipfin-ponyfish">Whipfin Ponyfish</a>'
p4236
sS'Care'
p4237
S'easy'
p4238
sa(dp4239
S'Origin'
p4240
S'Indo-Pacific'
p4241
sS'Scientific name'
p4242
S'Lethrinus obsoletus'
p4243
sS'Family'
p4244
S'Emperor'
p4245
sS'Size (cm)'
p4246
S'60'
p4247
sS'Recommended tank size'
p4248
S'very large'
p4249
sS'Most used common name'
p4250
S'<a href="http://saltwater.aqua-fish.net/?orange-striped-emperor">Orange-Striped Emperor</a>'
p4251
sS'Care'
p4252
S'difficult'
p4253
sa(dp4254
S'Origin'
p4255
S'Indo-West Pacific'
p4256
sS'Scientific name'
p4257
S'Lethrinus olivaceus'
p4258
sS'Family'
p4259
S'Emperor'
p4260
sS'Size (cm)'
p4261
S'100'
p4262
sS'Recommended tank size'
p4263
S'very large'
p4264
sS'Most used common name'
p4265
S'<a href="http://saltwater.aqua-fish.net/?longface-emperor">Longface Emperor</a>'
p4266
sS'Care'
p4267
S'difficult'
p4268
sa(dp4269
S'Origin'
p4270
S'East Atlantic'
p4271
sS'Scientific name'
p4272
S'Lutjanus agennes'
p4273
sS'Family'
p4274
S'Snapper'
p4275
sS'Size (cm)'
p4276
S'139'
p4277
sS'Recommended tank size'
p4278
S'very large'
p4279
sS'Most used common name'
p4280
S'<a href="http://saltwater.aqua-fish.net/?african-red-snapper">African Red Snapper</a>'
p4281
sS'Care'
p4282
S'difficult'
p4283
sa(dp4284
S'Origin'
p4285
S'Indo-Pacific'
p4286
sS'Scientific name'
p4287
S'Lutjanus bohar'
p4288
sS'Family'
p4289
S'Snapper'
p4290
sS'Size (cm)'
p4291
S'90'
p4292
sS'Recommended tank size'
p4293
S'very large'
p4294
sS'Most used common name'
p4295
S'<a href="http://saltwater.aqua-fish.net/?two-spot-red-snapper">Two-Spot Red Snapper</a>'
p4296
sS'Care'
p4297
S'difficult'
p4298
sa(dp4299
S'Origin'
p4300
S'Indo-West Pacific'
p4301
sS'Scientific name'
p4302
S'Lutjanus decussatus'
p4303
sS'Family'
p4304
S'Snapper'
p4305
sS'Size (cm)'
p4306
S'35'
p4307
sS'Recommended tank size'
p4308
S'large'
p4309
sS'Most used common name'
p4310
S'<a href="http://saltwater.aqua-fish.net/?checkered-snapper">Checkered Snapper</a>'
p4311
sS'Care'
p4312
S'difficult'
p4313
sa(dp4314
S'Origin'
p4315
S'Indo-West Pacific'
p4316
sS'Scientific name'
p4317
S'Lutjanus erythropterus'
p4318
sS'Family'
p4319
S'Snapper'
p4320
sS'Other identification'
p4321
S'Crimson snapper, Pink snapper, Small mouth nannygai'
p4322
sS'Size (cm)'
p4323
S'82'
p4324
sS'Recommended tank size'
p4325
S'very large'
p4326
sS'Most used common name'
p4327
S'<a href="http://saltwater.aqua-fish.net/?crimson-snapper">Crimson snapper</a>'
p4328
sS'Care'
p4329
S'not very difficult'
p4330
sa(dp4331
S'Origin'
p4332
S'Western Atlantic'
p4333
sS'Scientific name'
p4334
S'Lutjanus griseus'
p4335
sS'Family'
p4336
S'Snapper'
p4337
sS'Size (cm)'
p4338
S'90'
p4339
sS'Recommended tank size'
p4340
S'very large'
p4341
sS'Most used common name'
p4342
S'<a href="http://saltwater.aqua-fish.net/?grey-snapper">Grey Snapper</a>'
p4343
sS'Care'
p4344
S'not very difficult'
p4345
sa(dp4346
S'Origin'
p4347
S'Indo-West Pacific'
p4348
sS'Scientific name'
p4349
S'Lutjanus johnii'
p4350
sS'Family'
p4351
S'Snapper'
p4352
sS'Size (cm)'
p4353
S'95'
p4354
sS'Recommended tank size'
p4355
S'very large'
p4356
sS'Most used common name'
p4357
S'<a href="http://saltwater.aqua-fish.net/?johns-snapper">John\'s Snapper</a>'
p4358
sS'Care'
p4359
S'not very difficult'
p4360
sa(dp4361
S'Origin'
p4362
S'Indo-Pacific'
p4363
sS'Scientific name'
p4364
S'Lutjanus kasmira'
p4365
sS'Family'
p4366
S'Snapper'
p4367
sS'Size (cm)'
p4368
S'35'
p4369
sS'Recommended tank size'
p4370
S'large'
p4371
sS'Most used common name'
p4372
S'<a href="http://saltwater.aqua-fish.net/?common-bluestripe-snapper">Common Bluestripe Snapper</a>'
p4373
sS'Care'
p4374
S'not very difficult'
p4375
sa(dp4376
S'Origin'
p4377
S'Western Pacific'
p4378
sS'Scientific name'
p4379
S'Lutjanus lutjanus'
p4380
sS'Family'
p4381
S'Snapper'
p4382
sS'Size (cm)'
p4383
S'30'
p4384
sS'Recommended tank size'
p4385
S'large'
p4386
sS'Most used common name'
p4387
S'<a href="http://saltwater.aqua-fish.net/?bigeye-snapper">Bigeye Snapper</a>'
p4388
sS'Care'
p4389
S'not very difficult'
p4390
sa(dp4391
S'Origin'
p4392
S'Indo-Pacific'
p4393
sS'Scientific name'
p4394
S'Lutjanus monostigma'
p4395
sS'Family'
p4396
S'Snapper'
p4397
sS'Size (cm)'
p4398
S'60'
p4399
sS'Recommended tank size'
p4400
S'large'
p4401
sS'Most used common name'
p4402
S'<a href="http://saltwater.aqua-fish.net/?onespot-snapper">Onespot Snapper</a>'
p4403
sS'Care'
p4404
S'not very difficult'
p4405
sa(dp4406
S'Origin'
p4407
S'Indo-West Pacific'
p4408
sS'Scientific name'
p4409
S'Lutjanus sebae'
p4410
sS'Family'
p4411
S'Snapper'
p4412
sS'Size (cm)'
p4413
S'116'
p4414
sS'Recommended tank size'
p4415
S'very large'
p4416
sS'Most used common name'
p4417
S'<a href="http://saltwater.aqua-fish.net/?emperor-red-snaper">Emperor Red Snaper</a>'
p4418
sS'Care'
p4419
S'difficult'
p4420
sa(dp4421
S'Origin'
p4422
S'Indo-West Pacific'
p4423
sS'Scientific name'
p4424
S'Lutjanus vitta'
p4425
sS'Family'
p4426
S'Snapper'
p4427
sS'Size (cm)'
p4428
S'40'
p4429
sS'Recommended tank size'
p4430
S'large'
p4431
sS'Most used common name'
p4432
S'<a href="http://saltwater.aqua-fish.net/?brownstripe-red-snapper">Brownstripe Red Snapper</a>'
p4433
sS'Care'
p4434
S'difficult'
p4435
sa(dp4436
S'Origin'
p4437
S'Western Pacific'
p4438
sS'Scientific name'
p4439
S'Macolor macularis'
p4440
sS'Family'
p4441
S'Snapper'
p4442
sS'Size (cm)'
p4443
S'60'
p4444
sS'Recommended tank size'
p4445
S'very large'
p4446
sS'Most used common name'
p4447
S'<a href="http://saltwater.aqua-fish.net/?midnight-snapper">Midnight Snapper</a>'
p4448
sS'Care'
p4449
S'not very difficult'
p4450
sa(dp4451
S'Origin'
p4452
S'Indo-Pacific'
p4453
sS'Scientific name'
p4454
S'Macolor niger'
p4455
sS'Family'
p4456
S'Snapper'
p4457
sS'Size (cm)'
p4458
S'75'
p4459
sS'Recommended tank size'
p4460
S'very large'
p4461
sS'Most used common name'
p4462
S'<a href="http://saltwater.aqua-fish.net/?black-and-white-snapper">Black And White Snapper</a>'
p4463
sS'Care'
p4464
S'difficult'
p4465
sa(dp4466
S'Origin'
p4467
S'Western Pacific'
p4468
sS'Scientific name'
p4469
S'Macropharyngodon negrosensis'
p4470
sS'Family'
p4471
S'Wrasses'
p4472
sS'Size (cm)'
p4473
S'12'
p4474
sS'Recommended tank size'
p4475
S'medium'
p4476
sS'Most used common name'
p4477
S'<a href="http://saltwater.aqua-fish.net/?yellowspotted-wrasse">Yellowspotted Wrasse</a>'
p4478
sS'Care'
p4479
S'difficult'
p4480
sa(dp4481
S'Origin'
p4482
S'Western Atlantic'
p4483
sS'Scientific name'
p4484
S'Macroramphosus scolopax'
p4485
sS'Family'
p4486
S'Snipefish'
p4487
sS'Size (cm)'
p4488
S'20'
p4489
sS'Recommended tank size'
p4490
S'large'
p4491
sS'Most used common name'
p4492
S'<a href="http://saltwater.aqua-fish.net/?longspine-snipefish">Longspine Snipefish</a>'
p4493
sS'Care'
p4494
S'not very difficult'
p4495
sa(dp4496
S'Origin'
p4497
S'Indian Ocean'
p4498
sS'Scientific name'
p4499
S'Melichthys indicus'
p4500
sS'Family'
p4501
S'Triggers'
p4502
sS'Other identification'
p4503
S'Indian Triggerfish, Black Triggerfish, Black Finned Triggerfish'
p4504
sS'Size (cm)'
p4505
S'25'
p4506
sS'Recommended tank size'
p4507
S'medium'
p4508
sS'Most used common name'
p4509
S'<a href="http://saltwater.aqua-fish.net/?indian-triggerfish">Indian Triggerfish</a>'
p4510
sS'Care'
p4511
S'easy'
p4512
sa(dp4513
S'Origin'
p4514
S'Indo-Pacific'
p4515
sS'Scientific name'
p4516
S'Melichthys vidua'
p4517
sS'Family'
p4518
S'Triggers'
p4519
sS'Size (cm)'
p4520
S'40'
p4521
sS'Recommended tank size'
p4522
S'large'
p4523
sS'Most used common name'
p4524
S'<a href="http://saltwater.aqua-fish.net/?pinktail-trigger">Pinktail Trigger</a>'
p4525
sS'Care'
p4526
S'easy'
p4527
sa(dp4528
S'Origin'
p4529
S'Western Pacific'
p4530
sS'Scientific name'
p4531
S'Microcanthus strigatus'
p4532
sS'Family'
p4533
S'Sea Chubs'
p4534
sS'Size (cm)'
p4535
S'16'
p4536
sS'Recommended tank size'
p4537
S'medium'
p4538
sS'Most used common name'
p4539
S'<a href="http://saltwater.aqua-fish.net/?stripey">Stripey</a>'
p4540
sS'Care'
p4541
S'easy'
p4542
sa(dp4543
S'Origin'
p4544
S'Western Atlantic'
p4545
sS'Scientific name'
p4546
S'Microspathodon chrysurus'
p4547
sS'Family'
p4548
S'Damsel'
p4549
sS'Other identification'
p4550
S'Bluespot Damsel, Yellowtail Damsel, Jewel Damsel'
p4551
sS'Size (cm)'
p4552
S'21'
p4553
sS'Recommended tank size'
p4554
S'large'
p4555
sS'Most used common name'
p4556
S'<a href="http://saltwater.aqua-fish.net/?bluespot-damsel">Bluespot Damsel</a>'
p4557
sS'Care'
p4558
S'not very difficult'
p4559
sa(dp4560
S'Origin'
p4561
S'Indo-West Pacific'
p4562
sS'Scientific name'
p4563
S'Monocentris japonica'
p4564
sS'Family'
p4565
S'Pineconefish'
p4566
sS'Size (cm)'
p4567
S'17'
p4568
sS'Recommended tank size'
p4569
S'medium'
p4570
sS'Most used common name'
p4571
S'<a href="http://saltwater.aqua-fish.net/?pineconefish">Pineconefish</a>'
p4572
sS'Care'
p4573
S'difficult'
p4574
sa(dp4575
S'Origin'
p4576
S'Indo-West Pacific'
p4577
sS'Scientific name'
p4578
S'Monodactylus argenteus'
p4579
sS'Family'
p4580
S'Moonyfish'
p4581
sS'Size (cm)'
p4582
S'27'
p4583
sS'Recommended tank size'
p4584
S'large'
p4585
sS'Most used common name'
p4586
S'<a href="http://saltwater.aqua-fish.net/?silver-moony">Silver Moony</a>'
p4587
sS'Care'
p4588
S'not very difficult'
p4589
sa(dp4590
S'Origin'
p4591
S'East Atlantic'
p4592
sS'Scientific name'
p4593
S'Monodactylus sebae'
p4594
sS'Family'
p4595
S'Moonyfish'
p4596
sS'Size (cm)'
p4597
S'25'
p4598
sS'Recommended tank size'
p4599
S'large'
p4600
sS'Most used common name'
p4601
S'<a href="http://saltwater.aqua-fish.net/?african-moony">African Moony</a>'
p4602
sS'Care'
p4603
S'not very difficult'
p4604
sa(dp4605
S'Origin'
p4606
S'East Atlantic'
p4607
sS'Scientific name'
p4608
S'Muraena helena'
p4609
sS'Family'
p4610
S'Moray Eel'
p4611
sS'Size (cm)'
p4612
S'150'
p4613
sS'Recommended tank size'
p4614
S'very large'
p4615
sS'Most used common name'
p4616
S'<a href="http://saltwater.aqua-fish.net/?mediterranean-moray">Mediterranean Moray</a>'
p4617
sS'Care'
p4618
S'not very difficult'
p4619
sa(dp4620
S'Origin'
p4621
S'Indo-Pacific'
p4622
sS'Scientific name'
p4623
S'Myripristis berndti'
p4624
sS'Family'
p4625
S'Squirrelfish'
p4626
sS'Size (cm)'
p4627
S'30'
p4628
sS'Recommended tank size'
p4629
S'large'
p4630
sS'Most used common name'
p4631
S'<a href="http://saltwater.aqua-fish.net/?blotcheye-soldierfish">Blotcheye Soldierfish</a>'
p4632
sS'Care'
p4633
S'easy'
p4634
sa(dp4635
S'Origin'
p4636
S'Western Atlantic'
p4637
sS'Scientific name'
p4638
S'Myripristis jacobus'
p4639
sS'Family'
p4640
S'Squirrelfish'
p4641
sS'Size (cm)'
p4642
S'25'
p4643
sS'Recommended tank size'
p4644
S'large'
p4645
sS'Most used common name'
p4646
S'<a href="http://saltwater.aqua-fish.net/?blackbar-soldierfish">Blackbar Soldierfish</a>'
p4647
sS'Care'
p4648
S'easy'
p4649
sa(dp4650
S'Origin'
p4651
S'Indo-Pacific'
p4652
sS'Scientific name'
p4653
S'Myripristis kuntee'
p4654
sS'Family'
p4655
S'Squirrelfish'
p4656
sS'Size (cm)'
p4657
S'26'
p4658
sS'Recommended tank size'
p4659
S'large'
p4660
sS'Most used common name'
p4661
S'<a href="http://saltwater.aqua-fish.net/?shoulderbar-soldierfish">Shoulderbar Soldierfish</a>'
p4662
sS'Care'
p4663
S'easy'
p4664
sa(dp4665
S'Origin'
p4666
S'Indo-Pacific'
p4667
sS'Scientific name'
p4668
S'Myripristis murdjan'
p4669
sS'Family'
p4670
S'Squirrelfish'
p4671
sS'Size (cm)'
p4672
S'60'
p4673
sS'Recommended tank size'
p4674
S'very large'
p4675
sS'Most used common name'
p4676
S'<a href="http://saltwater.aqua-fish.net/?pinecone-soldierfish">Pinecone Soldierfish</a>'
p4677
sS'Care'
p4678
S'easy'
p4679
sa(dp4680
S'Origin'
p4681
S'Indo-Pacific'
p4682
sS'Scientific name'
p4683
S'Naso annulatus'
p4684
sS'Family'
p4685
S'Tang'
p4686
sS'Size (cm)'
p4687
S'100'
p4688
sS'Recommended tank size'
p4689
S'very large'
p4690
sS'Most used common name'
p4691
S'<a href="http://saltwater.aqua-fish.net/?whitemargin-unicornfish">Whitemargin Unicornfish</a>'
p4692
sS'Care'
p4693
S'not very difficult'
p4694
sa(dp4695
S'Origin'
p4696
S'Indo-Pacific'
p4697
sS'Scientific name'
p4698
S'Naso brevirostris'
p4699
sS'Family'
p4700
S'Tang'
p4701
sS'Size (cm)'
p4702
S'60'
p4703
sS'Recommended tank size'
p4704
S'very large'
p4705
sS'Most used common name'
p4706
S'<a href="http://saltwater.aqua-fish.net/?spotted-unicornfish">Spotted Unicornfish</a>'
p4707
sS'Care'
p4708
S'not very difficult'
p4709
sa(dp4710
S'Origin'
p4711
S'Eastern Pacific'
p4712
sS'Scientific name'
p4713
S'Naso lituratus'
p4714
sS'Family'
p4715
S'Tang'
p4716
sS'Size (cm)'
p4717
S'45'
p4718
sS'Recommended tank size'
p4719
S'large'
p4720
sS'Most used common name'
p4721
S'<a href="http://saltwater.aqua-fish.net/?orangespine-unicornfish">Orangespine Unicornfish</a>'
p4722
sS'Care'
p4723
S'not very difficult'
p4724
sa(dp4725
S'Origin'
p4726
S'Indo-Pacific'
p4727
sS'Scientific name'
p4728
S'Naso unicornis'
p4729
sS'Family'
p4730
S'Tang'
p4731
sS'Size (cm)'
p4732
S'70'
p4733
sS'Recommended tank size'
p4734
S'very large'
p4735
sS'Most used common name'
p4736
S'<a href="http://saltwater.aqua-fish.net/?bluespine-unicornfish">Bluespine Unicornfish</a>'
p4737
sS'Care'
p4738
S'not very difficult'
p4739
sa(dp4740
S'Origin'
p4741
S'Indo-Pacific'
p4742
sS'Scientific name'
p4743
S'Naso vlamingii'
p4744
sS'Family'
p4745
S'Tang'
p4746
sS'Size (cm)'
p4747
S'60'
p4748
sS'Recommended tank size'
p4749
S'very large'
p4750
sS'Most used common name'
p4751
S'<a href="http://saltwater.aqua-fish.net/?bignose-unicornfish">Bignose Unicornfish</a>'
p4752
sS'Care'
p4753
S'not very difficult'
p4754
sa(dp4755
S'Origin'
p4756
S'Indo-West Pacific'
p4757
sS'Scientific name'
p4758
S'Nemapteryx nenga'
p4759
sS'Family'
p4760
S'Sea Catfish'
p4761
sS'Size (cm)'
p4762
S'30'
p4763
sS'Recommended tank size'
p4764
S'large'
p4765
sS'Most used common name'
p4766
S'<a href="http://saltwater.aqua-fish.net/?spotfin-sea-catfish">Spotfin Sea Catfish</a>'
p4767
sS'Care'
p4768
S'not very difficult'
p4769
sa(dp4770
S'Origin'
p4771
S'Indo-Pacific'
p4772
sS'Scientific name'
p4773
S'Nemateleotris decora'
p4774
sS'Family'
p4775
S'Dartfish'
p4776
sS'Size (cm)'
p4777
S'9'
sS'Recommended tank size'
p4778
S'medium'
p4779
sS'Most used common name'
p4780
S'<a href="http://saltwater.aqua-fish.net/?elegant-firefish">Elegant Firefish</a>'
p4781
sS'Care'
p4782
S'easy'
p4783
sa(dp4784
S'Origin'
p4785
S'Indo-Pacific'
p4786
sS'Scientific name'
p4787
S'Nemateleotris magnifica'
p4788
sS'Family'
p4789
S'Dartfish'
p4790
sS'Size (cm)'
p4791
S'8'
sS'Recommended tank size'
p4792
S'medium'
p4793
sS'Most used common name'
p4794
S'<a href="http://saltwater.aqua-fish.net/?orange-firefish">Orange Firefish</a>'
p4795
sS'Care'
p4796
S'easy'
p4797
sa(dp4798
S'Origin'
p4799
S'Indian Ocean'
p4800
sS'Scientific name'
p4801
S'Nemipterus furcosus'
p4802
sS'Family'
p4803
S'Threadfin Bream'
p4804
sS'Size (cm)'
p4805
S'24'
p4806
sS'Recommended tank size'
p4807
S'large'
p4808
sS'Most used common name'
p4809
S'<a href="http://saltwater.aqua-fish.net/?fork-tailed-threadfin-bream">Fork-Tailed Threadfin Bream</a>'
p4810
sS'Care'
p4811
S'easy'
p4812
sa(dp4813
S'Origin'
p4814
S'Pacific Ocean'
p4815
sS'Scientific name'
p4816
S'Neocirrhites armatus'
p4817
sS'Family'
p4818
S'Hawkfish'
p4819
sS'Size (cm)'
p4820
S'9'
sS'Recommended tank size'
p4821
S'medium'
p4822
sS'Most used common name'
p4823
S'<a href="http://saltwater.aqua-fish.net/?flame-hawkfish">Flame Hawkfish</a>'
p4824
sS'Care'
p4825
S'not very difficult'
p4826
sa(dp4827
S'Origin'
p4828
S'Indo-West Pacific'
p4829
sS'Scientific name'
p4830
S'Neoglyphidodon melas'
p4831
sS'Family'
p4832
S'Damsel'
p4833
sS'Size (cm)'
p4834
S'18'
p4835
sS'Recommended tank size'
p4836
S'medium'
p4837
sS'Most used common name'
p4838
S'<a href="http://saltwater.aqua-fish.net/?bowtie-damselfish">Bowtie Damselfish</a>'
p4839
sS'Care'
p4840
S'not very difficult'
p4841
sa(dp4842
S'Origin'
p4843
S'Western Central Pacific'
p4844
sS'Scientific name'
p4845
S'Neoglyphidodon oxyodon'
p4846
sS'Family'
p4847
S'Damsel'
p4848
sS'Size (cm)'
p4849
S'15'
p4850
sS'Recommended tank size'
p4851
S'medium'
p4852
sS'Most used common name'
p4853
S'<a href="http://saltwater.aqua-fish.net/?bluestreak-damselfish">Bluestreak Damselfish</a>'
p4854
sS'Care'
p4855
S'not very difficult'
p4856
sa(dp4857
S'Origin'
p4858
S'Indo-Pacific'
p4859
sS'Scientific name'
p4860
S'Neoniphon sammara'
p4861
sS'Family'
p4862
S'Squirrelfish'
p4863
sS'Size (cm)'
p4864
S'32'
p4865
sS'Recommended tank size'
p4866
S'large'
p4867
sS'Most used common name'
p4868
S'<a href="http://saltwater.aqua-fish.net/?sammara-squirrelfish">Sammara Squirrelfish</a>'
p4869
sS'Care'
p4870
S'easy'
p4871
sa(dp4872
S'Origin'
p4873
S'Indo-Pacific'
p4874
sS'Scientific name'
p4875
S'Novaculichthys taeniourus'
p4876
sS'Family'
p4877
S'Wrasses'
p4878
sS'Size (cm)'
p4879
S'30'
p4880
sS'Recommended tank size'
p4881
S'large'
p4882
sS'Most used common name'
p4883
S'<a href="http://saltwater.aqua-fish.net/?rockmover-wrasse">Rockmover Wrasse</a>'
p4884
sS'Care'
p4885
S'not very difficult'
p4886
sa(dp4887
S'Origin'
p4888
S'Indo-Pacific'
p4889
sS'Scientific name'
p4890
S'Odonus niger'
p4891
sS'Family'
p4892
S'Triggers'
p4893
sS'Other identification'
p4894
S'Niger Trigger, Redtoothed Triggerfish'
p4895
sS'Size (cm)'
p4896
S'50'
p4897
sS'Recommended tank size'
p4898
S'very large'
p4899
sS'Most used common name'
p4900
S'<a href="http://saltwater.aqua-fish.net/?niger-trigger">Niger Trigger</a>'
p4901
sS'Care'
p4902
S'easy'
p4903
sa(dp4904
S'Origin'
p4905
S'Western Central Pacific'
p4906
sS'Scientific name'
p4907
S'Ogilbyina velifera'
p4908
sS'Family'
p4909
S'Dottyback'
p4910
sS'Size (cm)'
p4911
S'12'
p4912
sS'Recommended tank size'
p4913
S'medium'
p4914
sS'Most used common name'
p4915
S'<a href="http://saltwater.aqua-fish.net/?sailfin-dottyback">Sailfin Dottyback</a>'
p4916
sS'Care'
p4917
S'not very difficult'
p4918
sa(dp4919
S'Origin'
p4920
S'Western Central Atlantic'
p4921
sS'Scientific name'
p4922
S'Opistognathus aurifrons'
p4923
sS'Family'
p4924
S'Jawfish'
p4925
sS'Size (cm)'
p4926
S'10'
p4927
sS'Recommended tank size'
p4928
S'medium'
p4929
sS'Most used common name'
p4930
S'<a href="http://saltwater.aqua-fish.net/?yellowhead-jawfish">Yellowhead Jawfish</a>'
p4931
sS'Care'
p4932
S'easy'
p4933
sa(dp4934
S'Origin'
p4935
S'Eastern Indian Ocean'
p4936
sS'Scientific name'
p4937
S'Orectolobus maculatus'
p4938
sS'Family'
p4939
S'Carpet Shark'
p4940
sS'Size (cm)'
p4941
S'320'
p4942
sS'Recommended tank size'
p4943
S'very large'
p4944
sS'Most used common name'
p4945
S'<a href="http://saltwater.aqua-fish.net/?spotted-wobbegong">Spotted Wobbegong</a>'
p4946
sS'Care'
p4947
S'difficult'
p4948
sa(dp4949
S'Origin'
p4950
S'Indo-Pacific'
p4951
sS'Scientific name'
p4952
S'Ostracion cubicus'
p4953
sS'Family'
p4954
S'Boxfish'
p4955
sS'Size (cm)'
p4956
S'45'
p4957
sS'Recommended tank size'
p4958
S'large'
p4959
sS'Most used common name'
p4960
S'<a href="http://saltwater.aqua-fish.net/?yellow-boxfish">Yellow Boxfish</a>'
p4961
sS'Care'
p4962
S'difficult'
p4963
sa(dp4964
S'Origin'
p4965
S'Western Indian Ocean'
p4966
sS'Scientific name'
p4967
S'Ostracion cyanurus'
p4968
sS'Family'
p4969
S'Boxfish'
p4970
sS'Size (cm)'
p4971
S'15'
p4972
sS'Recommended tank size'
p4973
S'medium'
p4974
sS'Most used common name'
p4975
S'<a href="http://saltwater.aqua-fish.net/?bluetail-trunkfish">Bluetail trunkfish</a>'
p4976
sS'Care'
p4977
S'difficult'
p4978
sa(dp4979
S'Origin'
p4980
S'Western Pacific'
p4981
sS'Scientific name'
p4982
S'Ostracion solorensis'
p4983
sS'Family'
p4984
S'Boxfish'
p4985
sS'Size (cm)'
p4986
S'12'
p4987
sS'Recommended tank size'
p4988
S'medium'
p4989
sS'Most used common name'
p4990
S'<a href="http://saltwater.aqua-fish.net/?reticulate-boxfish">Reticulate Boxfish</a>'
p4991
sS'Care'
p4992
S'difficult'
p4993
sa(dp4994
S'Origin'
p4995
S'Western Indian Ocean'
p4996
sS'Scientific name'
p4997
S'Oxycheilinus mentalis'
p4998
sS'Family'
p4999
S'Wrasses'
p5000
sS'Size (cm)'
p5001
S'20'
p5002
sS'Recommended tank size'
p5003
S'large'
p5004
sS'Most used common name'
p5005
S'<a href="http://saltwater.aqua-fish.net/?mental-wrasse">Mental Wrasse</a>'
p5006
sS'Care'
p5007
S'not very difficult'
p5008
sa(dp5009
S'Origin'
p5010
S'Indo-Pacific'
p5011
sS'Scientific name'
p5012
S'Oxycirrhites typus'
p5013
sS'Family'
p5014
S'Hawkfish'
p5015
sS'Size (cm)'
p5016
S'13'
p5017
sS'Recommended tank size'
p5018
S'medium'
p5019
sS'Most used common name'
p5020
S'<a href="http://saltwater.aqua-fish.net/?longnose-hawkfish">Longnose Hawkfish</a>'
p5021
sS'Care'
p5022
S'easy'
p5023
sa(dp5024
S'Origin'
p5025
S'Western Indian Ocean'
p5026
sS'Scientific name'
p5027
S'Papilloculiceps longiceps'
p5028
sS'Family'
p5029
S'Flathead'
p5030
sS'Size (cm)'
p5031
S'70'
p5032
sS'Recommended tank size'
p5033
S'very large'
p5034
sS'Most used common name'
p5035
S'<a href="http://saltwater.aqua-fish.net/?tentacled-flathead">Tentacled Flathead</a>'
p5036
sS'Care'
p5037
S'difficult'
p5038
sa(dp5039
S'Origin'
p5040
S'East Atlantic'
p5041
sS'Scientific name'
p5042
S'Parablennius incognitus'
p5043
sS'Family'
p5044
S'Combtooth Blenny'
p5045
sS'Size (cm)'
p5046
S'6'
sS'Recommended tank size'
p5047
S'medium'
p5048
sS'Most used common name'
p5049
S'<a href="http://saltwater.aqua-fish.net/?mystery-blenny">Mystery Blenny</a>'
p5050
sS'Care'
p5051
S'easy'
p5052
sa(dp5053
S'Origin'
p5054
S'Indo-Pacific'
p5055
sS'Scientific name'
p5056
S'Paracanthurus hepatus'
p5057
sS'Family'
p5058
S'Tang'
p5059
sS'Other identification'
p5060
S'Blue Tang, Palette Surgeonfish'
p5061
sS'Size (cm)'
p5062
S'31'
p5063
sS'Recommended tank size'
p5064
S'large'
p5065
sS'Most used common name'
p5066
S'<a href="http://saltwater.aqua-fish.net/?palette-surgeonfish">Palette Surgeonfish</a>'
p5067
sS'Care'
p5068
S'difficult'
p5069
sa(dp5070
S'Origin'
p5071
S'Indo-Pacific'
p5072
sS'Scientific name'
p5073
S'Parachaetodon ocellatus'
p5074
sS'Family'
p5075
S'Butterfly Fish'
p5076
sS'Size (cm)'
p5077
S'18'
p5078
sS'Recommended tank size'
p5079
S'medium'
p5080
sS'Most used common name'
p5081
S'<a href="http://saltwater.aqua-fish.net/?sixspine-butterflyfish">Sixspine Butterflyfish</a>'
p5082
sS'Care'
p5083
S'easy'
p5084
sa(dp5085
S'Origin'
p5086
S'Western Pacific'
p5087
sS'Scientific name'
p5088
S'Paracheilinus lineopunctatus'
p5089
sS'Family'
p5090
S'Wrasses'
p5091
sS'Size (cm)'
p5092
S'7'
sS'Recommended tank size'
p5093
S'medium'
p5094
sS'Most used common name'
p5095
S'<a href="http://saltwater.aqua-fish.net/?spot-lined-flasher">Spot-Lined Flasher</a>'
p5096
sS'Care'
p5097
S'easy'
p5098
sa(dp5099
S'Origin'
p5100
S'Indo-Pacific'
p5101
sS'Scientific name'
p5102
S'Paracirrhites arcatus'
p5103
sS'Family'
p5104
S'Hawkfish'
p5105
sS'Size (cm)'
p5106
S'20'
p5107
sS'Recommended tank size'
p5108
S'large'
p5109
sS'Most used common name'
p5110
S'<a href="http://saltwater.aqua-fish.net/?arc-eye-hawkfish">Arc-Eye Hawkfish</a>'
p5111
sS'Care'
p5112
S'easy'
p5113
sa(dp5114
S'Origin'
p5115
S'Indo-Pacific'
p5116
sS'Scientific name'
p5117
S'Paracirrhites forsteri'
p5118
sS'Family'
p5119
S'Hawkfish'
p5120
sS'Size (cm)'
p5121
S'22'
p5122
sS'Recommended tank size'
p5123
S'large'
p5124
sS'Most used common name'
p5125
S'<a href="http://saltwater.aqua-fish.net/?blackside-hawkfish">Blackside Hawkfish</a>'
p5126
sS'Care'
p5127
S'easy'
p5128
sa(dp5129
S'Origin'
p5130
S'Western Atlantic'
p5131
sS'Scientific name'
p5132
S'Pareques acuminatus'
p5133
sS'Family'
p5134
S'Drum'
p5135
sS'Size (cm)'
p5136
S'23'
p5137
sS'Recommended tank size'
p5138
S'large'
p5139
sS'Most used common name'
p5140
S'<a href="http://saltwater.aqua-fish.net/?high-hat">High-Hat</a>'
p5141
sS'Care'
p5142
S'easy'
p5143
sa(dp5144
S'Origin'
p5145
S'Indo-Pacific'
p5146
sS'Scientific name'
p5147
S'Parupeneus barberinus'
p5148
sS'Family'
p5149
S'Goatfish'
p5150
sS'Other identification'
p5151
S'Dash-And-Dot Goatfish, Hawaiian Bicolor Goatfish'
p5152
sS'Size (cm)'
p5153
S'60'
p5154
sS'Recommended tank size'
p5155
S'very large'
p5156
sS'Most used common name'
p5157
S'<a href="http://saltwater.aqua-fish.net/?hawaiian-bicolor-goatfish">Hawaiian Bicolor Goatfish</a>'
p5158
sS'Care'
p5159
S'not very difficult'
p5160
sa(dp5161
S'Origin'
p5162
S'Indo-Pacific'
p5163
sS'Scientific name'
p5164
S'Parupeneus indicus'
p5165
sS'Family'
p5166
S'Goatfish'
p5167
sS'Size (cm)'
p5168
S'45'
p5169
sS'Recommended tank size'
p5170
S'large'
p5171
sS'Most used common name'
p5172
S'<a href="http://saltwater.aqua-fish.net/?indian-goatfish">Indian Goatfish</a>'
p5173
sS'Care'
p5174
S'not very difficult'
p5175
sa(dp5176
S'Origin'
p5177
S'Indo-Pacific'
p5178
sS'Scientific name'
p5179
S'Pempheris oualensis'
p5180
sS'Family'
p5181
S'Sweeper'
p5182
sS'Size (cm)'
p5183
S'20'
p5184
sS'Recommended tank size'
p5185
S'large'
p5186
sS'Most used common name'
p5187
S'<a href="http://saltwater.aqua-fish.net/?silver-sweeper">Silver Sweeper</a>'
p5188
sS'Care'
p5189
S'easy'
p5190
sa(dp5191
S'Origin'
p5192
S'Indo-West Pacific'
p5193
sS'Scientific name'
p5194
S'Pempheris vanicolensis'
p5195
sS'Family'
p5196
S'Sweeper'
p5197
sS'Size (cm)'
p5198
S'20'
p5199
sS'Recommended tank size'
p5200
S'large'
p5201
sS'Most used common name'
p5202
S'<a href="http://saltwater.aqua-fish.net/?vanikoro-sweeper">Vanikoro Sweeper</a>'
p5203
sS'Care'
p5204
S'easy'
p5205
sa(dp5206
S'Origin'
p5207
S'Western Central Pacific'
p5208
sS'Scientific name'
p5209
S'Pentapodus setosus'
p5210
sS'Family'
p5211
S'Whiptail Breams'
p5212
sS'Size (cm)'
p5213
S'18'
p5214
sS'Recommended tank size'
p5215
S'medium'
p5216
sS'Most used common name'
p5217
S'<a href="http://saltwater.aqua-fish.net/?butterfly-whiptail">Butterfly Whiptail</a>'
p5218
sS'Care'
p5219
S'easy'
p5220
sa(dp5221
S'Origin'
p5222
S'Africa'
p5223
sS'Scientific name'
p5224
S'Periophthalmus barbarus'
p5225
sS'Family'
p5226
S'Goby'
p5227
sS'Size (cm)'
p5228
S'25'
p5229
sS'Recommended tank size'
p5230
S'large'
p5231
sS'Most used common name'
p5232
S'<a href="http://saltwater.aqua-fish.net/?atlantic-mudskipper">Atlantic Mudskipper</a>'
p5233
sS'Care'
p5234
S'not very difficult'
p5235
sa(dp5236
S'Origin'
p5237
S'Indo-West Pacific'
p5238
sS'Scientific name'
p5239
S'Pervagor melanocephalus'
p5240
sS'Family'
p5241
S'Filefish'
p5242
sS'Size (cm)'
p5243
S'16'
p5244
sS'Recommended tank size'
p5245
S'medium'
p5246
sS'Most used common name'
p5247
S'<a href="http://saltwater.aqua-fish.net/?redtail-filefish">Redtail Filefish</a>'
p5248
sS'Care'
p5249
S'easy'
p5250
sa(dp5251
S'Origin'
p5252
S'Western Pacific'
p5253
sS'Scientific name'
p5254
S'Pervagor nigrolineatus'
p5255
sS'Family'
p5256
S'Filefish'
p5257
sS'Size (cm)'
p5258
S'10'
p5259
sS'Recommended tank size'
p5260
S'medium'
p5261
sS'Most used common name'
p5262
S'<a href="http://saltwater.aqua-fish.net/?blacklined-filefis">Blacklined Filefish</a>'
p5263
sS'Care'
p5264
S'easy'
p5265
sa(dp5266
S'Origin'
p5267
S'Western Central Pacific'
p5268
sS'Scientific name'
p5269
S'Pholidichthys leucotaenia'
p5270
sS'Family'
p5271
S'Convict Blenny'
p5272
sS'Size (cm)'
p5273
S'34'
p5274
sS'Recommended tank size'
p5275
S'large'
p5276
sS'Most used common name'
p5277
S'<a href="http://saltwater.aqua-fish.net/?engineer-goby">Engineer Goby</a>'
p5278
sS'Care'
p5279
S'easy'
p5280
sa(dp5281
S'Origin'
p5282
S'Australian Reefs'
p5283
sS'Scientific name'
p5284
S'Phycodurus eques'
p5285
sS'Family'
p5286
S'Seahorse'
p5287
sS'Size (cm)'
p5288
S'35'
p5289
sS'Recommended tank size'
p5290
S'large'
p5291
sS'Most used common name'
p5292
S'<a href="http://saltwater.aqua-fish.net/?leafy-sea-dragon">Leafy Sea Dragon</a>'
p5293
sS'Care'
p5294
S'difficult'
p5295
sa(dp5296
S'Origin'
p5297
S'Eastern Indian Ocean'
p5298
sS'Scientific name'
p5299
S'Phyllopteryx taeniolatus'
p5300
sS'Family'
p5301
S'Seahorse'
p5302
sS'Size (cm)'
p5303
S'45'
p5304
sS'Recommended tank size'
p5305
S'large'
p5306
sS'Most used common name'
p5307
S'<a href="http://saltwater.aqua-fish.net/?common-seadragon">Common Seadragon</a>'
p5308
sS'Care'
p5309
S'not very difficult'
p5310
sa(dp5311
S'Origin'
p5312
S'Indo-West Pacific'
p5313
sS'Scientific name'
p5314
S'Platax boersii'
p5315
sS'Family'
p5316
S'Batfish'
p5317
sS'Size (cm)'
p5318
S'40'
p5319
sS'Recommended tank size'
p5320
S'large'
p5321
sS'Most used common name'
p5322
S'<a href="http://saltwater.aqua-fish.net/?golden-spadefish">Golden Spadefish</a>'
p5323
sS'Care'
p5324
S'not very difficult'
p5325
sa(dp5326
S'Origin'
p5327
S'Indo-Pacific'
p5328
sS'Scientific name'
p5329
S'Platax orbicularis'
p5330
sS'Family'
p5331
S'Batfish'
p5332
sS'Size (cm)'
p5333
S'50'
p5334
sS'Recommended tank size'
p5335
S'large'
p5336
sS'Most used common name'
p5337
S'<a href="http://saltwater.aqua-fish.net/?orbicular-batfish">Orbicular Batfish</a>'
p5338
sS'Care'
p5339
S'not very difficult'
p5340
sa(dp5341
S'Origin'
p5342
S'Western Pacific'
p5343
sS'Scientific name'
p5344
S'Platax pinnatus'
p5345
sS'Family'
p5346
S'Batfish'
p5347
sS'Size (cm)'
p5348
S'45'
p5349
sS'Recommended tank size'
p5350
S'large'
p5351
sS'Most used common name'
p5352
S'<a href="http://saltwater.aqua-fish.net/?dusky-batfish">Dusky Batfish</a>'
p5353
sS'Care'
p5354
S'difficult'
p5355
sa(dp5356
S'Origin'
p5357
S'Indo-West Pacific'
p5358
sS'Scientific name'
p5359
S'Platax teira'
p5360
sS'Family'
p5361
S'Batfish'
p5362
sS'Size (cm)'
p5363
S'70'
p5364
sS'Recommended tank size'
p5365
S'very large'
p5366
sS'Most used common name'
p5367
S'<a href="http://saltwater.aqua-fish.net/?tiera-batfish">Tiera Batfish</a>'
p5368
sS'Care'
p5369
S'not very difficult'
p5370
sa(dp5371
S'Origin'
p5372
S'Indian Ocean'
p5373
sS'Scientific name'
p5374
S'Plectorhinchus chaetodonoides'
p5375
sS'Family'
p5376
S'Grunts'
p5377
sS'Size (cm)'
p5378
S'70'
p5379
sS'Recommended tank size'
p5380
S'very large'
p5381
sS'Most used common name'
p5382
S'<a href="http://saltwater.aqua-fish.net/?harlequin-sweetlips">Harlequin Sweetlips</a>'
p5383
sS'Care'
p5384
S'difficult'
p5385
sa(dp5386
S'Origin'
p5387
S'Indo-West Pacific'
p5388
sS'Scientific name'
p5389
S'Plectorhinchus flavomaculatus'
p5390
sS'Family'
p5391
S'Grunts'
p5392
sS'Size (cm)'
p5393
S'60'
p5394
sS'Recommended tank size'
p5395
S'very large'
p5396
sS'Most used common name'
p5397
S'<a href="http://saltwater.aqua-fish.net/?lemon-sweetlip">Lemon Sweetlip</a>'
p5398
sS'Care'
p5399
S'not very difficult'
p5400
sa(dp5401
S'Origin'
p5402
S'Western Indian Ocean'
p5403
sS'Scientific name'
p5404
S'Plectorhinchus gaterinus'
p5405
sS'Family'
p5406
S'Grunts'
p5407
sS'Size (cm)'
p5408
S'50'
p5409
sS'Recommended tank size'
p5410
S'large'
p5411
sS'Most used common name'
p5412
S'<a href="http://saltwater.aqua-fish.net/?blackspotted-rubberlip">Blackspotted Rubberlip</a>'
p5413
sS'Care'
p5414
S'not very difficult'
p5415
sa(dp5416
S'Origin'
p5417
S'Indo-West Pacific'
p5418
sS'Scientific name'
p5419
S'Plectorhinchus vittatus'
p5420
sS'Family'
p5421
S'Grunts'
p5422
sS'Other identification'
p5423
S'Indian Ocean Oriental Sweetlips, Oriental Thicklip'
p5424
sS'Size (cm)'
p5425
S'80'
p5426
sS'Recommended tank size'
p5427
S'very large'
p5428
sS'Most used common name'
p5429
S'<a href="http://saltwater.aqua-fish.net/?indian-ocean-oriental-sweetlips">Indian Ocean Oriental Sweetlips</a>'
p5430
sS'Care'
p5431
S'difficult'
p5432
sa(dp5433
S'Origin'
p5434
S'Indo-Pacific'
p5435
sS'Scientific name'
p5436
S'Plectropomus laevis'
p5437
sS'Family'
p5438
S'Grouper'
p5439
sS'Size (cm)'
p5440
S'125'
p5441
sS'Recommended tank size'
p5442
S'very large'
p5443
sS'Most used common name'
p5444
S'<a href="http://saltwater.aqua-fish.net/?blacksaddled-coralgrouper">Blacksaddled Coralgrouper</a>'
p5445
sS'Care'
p5446
S'difficult'
p5447
sa(dp5448
S'Origin'
p5449
S'Western Pacific'
p5450
sS'Scientific name'
p5451
S'Plectropomus maculatus'
p5452
sS'Family'
p5453
S'Grouper'
p5454
sS'Size (cm)'
p5455
S'100'
p5456
sS'Recommended tank size'
p5457
S'very large'
p5458
sS'Most used common name'
p5459
S'<a href="http://saltwater.aqua-fish.net/?spotted-coralgrouper">Spotted Coralgrouper</a>'
p5460
sS'Care'
p5461
S'not very difficult'
p5462
sa(dp5463
S'Origin'
p5464
S'Indo-West Pacific'
p5465
sS'Scientific name'
p5466
S'Plotosus canius'
p5467
sS'Family'
p5468
S'Eeltail Catfish'
p5469
sS'Size (cm)'
p5470
S'150'
p5471
sS'Recommended tank size'
p5472
S'very large'
p5473
sS'Most used common name'
p5474
S'<a href="http://saltwater.aqua-fish.net/?gray-eel-catfish">Gray Eel-Catfish</a>'
p5475
sS'Care'
p5476
S'difficult'
p5477
sa(dp5478
S'Origin'
p5479
S'Indo-Pacific'
p5480
sS'Scientific name'
p5481
S'Plotosus lineatus'
p5482
sS'Family'
p5483
S'Eeltail Catfish'
p5484
sS'Size (cm)'
p5485
S'32'
p5486
sS'Recommended tank size'
p5487
S'large'
p5488
sS'Most used common name'
p5489
S'<a href="http://saltwater.aqua-fish.net/?striped-eel-catfish">Striped Eel Catfish</a>'
p5490
sS'Care'
p5491
S'not very difficult'
p5492
sa(dp5493
S'Origin'
p5494
S'Asia'
p5495
sS'Scientific name'
p5496
S'Polynemus multifilis'
p5497
sS'Family'
p5498
S'Threadfin'
p5499
sS'Size (cm)'
p5500
S'28'
p5501
sS'Recommended tank size'
p5502
S'large'
p5503
sS'Most used common name'
p5504
S'<a href="http://saltwater.aqua-fish.net/?elegant-paradiseus-fish">Elegant Paradiseus Fish</a>'
p5505
sS'Care'
p5506
S'easy'
p5507
sa(dp5508
S'Origin'
p5509
S'Indo-West Pacific'
p5510
sS'Scientific name'
p5511
S'Pomacanthus annularis'
p5512
sS'Family'
p5513
S'Angelfish'
p5514
sS'Size (cm)'
p5515
S'45'
p5516
sS'Recommended tank size'
p5517
S'large'
p5518
sS'Most used common name'
p5519
S'<a href="http://saltwater.aqua-fish.net/?bluering-angelfish">Bluering Angelfish</a>'
p5520
sS'Care'
p5521
S'not very difficult'
p5522
sa(dp5523
S'Origin'
p5524
S'Western Atlantic'
p5525
sS'Scientific name'
p5526
S'Pomacanthus arcuatus'
p5527
sS'Family'
p5528
S'Angelfish'
p5529
sS'Size (cm)'
p5530
S'60'
p5531
sS'Recommended tank size'
p5532
S'very large'
p5533
sS'Most used common name'
p5534
S'<a href="http://saltwater.aqua-fish.net/?gray-angelfish">Gray Angelfish</a>'
p5535
sS'Care'
p5536
S'not very difficult'
p5537
sa(dp5538
S'Origin'
p5539
S'Western Indian Ocean'
p5540
sS'Scientific name'
p5541
S'Pomacanthus asfur'
p5542
sS'Family'
p5543
S'Angelfish'
p5544
sS'Size (cm)'
p5545
S'40'
p5546
sS'Recommended tank size'
p5547
S'large'
p5548
sS'Most used common name'
p5549
S'<a href="http://saltwater.aqua-fish.net/?arabian-angelfish">Arabian Angelfish</a>'
p5550
sS'Care'
p5551
S'not very difficult'
p5552
sa(dp5553
S'Origin'
p5554
S'Western Indian Ocean'
p5555
sS'Scientific name'
p5556
S'Pomacanthus chrysurus'
p5557
sS'Family'
p5558
S'Angelfish'
p5559
sS'Size (cm)'
p5560
S'30'
p5561
sS'Recommended tank size'
p5562
S'large'
p5563
sS'Most used common name'
p5564
S'<a href="http://saltwater.aqua-fish.net/?goldtail-angelfish">Goldtail Angelfish</a>'
p5565
sS'Care'
p5566
S'not very difficult'
p5567
sa(dp5568
S'Origin'
p5569
S'Indo-Pacific'
p5570
sS'Scientific name'
p5571
S'Pomacanthus imperator'
p5572
sS'Family'
p5573
S'Angelfish'
p5574
sS'Size (cm)'
p5575
S'40'
p5576
sS'Recommended tank size'
p5577
S'large'
p5578
sS'Most used common name'
p5579
S'<a href="http://saltwater.aqua-fish.net/?emperor-angelfish">Emperor Angelfish</a>'
p5580
sS'Care'
p5581
S'not very difficult'
p5582
sa(dp5583
S'Origin'
p5584
S'Indo-Pacific'
p5585
sS'Scientific name'
p5586
S'Pomacanthus maculosus'
p5587
sS'Family'
p5588
S'Angelfish'
p5589
sS'Size (cm)'
p5590
S'40'
p5591
sS'Recommended tank size'
p5592
S'large'
p5593
sS'Most used common name'
p5594
S'<a href="http://saltwater.aqua-fish.net/?yellowbar-angelfish">Yellowbar Angelfish</a>'
p5595
sS'Care'
p5596
S'easy'
p5597
sa(dp5598
S'Origin'
p5599
S'Indo-Pacific'
p5600
sS'Scientific name'
p5601
S'Pomacanthus navarchus'
p5602
sS'Family'
p5603
S'Angelfish'
p5604
sS'Size (cm)'
p5605
S'30'
p5606
sS'Recommended tank size'
p5607
S'large'
p5608
sS'Most used common name'
p5609
S'<a href="http://saltwater.aqua-fish.net/?bluegirdled-angelfish">Bluegirdled Angelfish</a>'
p5610
sS'Care'
p5611
S'not very difficult'
p5612
sa(dp5613
S'Origin'
p5614
S'Western Atlantic'
p5615
sS'Scientific name'
p5616
S'Pomacanthus paru'
p5617
sS'Family'
p5618
S'Angelfish'
p5619
sS'Size (cm)'
p5620
S'35'
p5621
sS'Recommended tank size'
p5622
S'large'
p5623
sS'Most used common name'
p5624
S'<a href="http://saltwater.aqua-fish.net/?french-angelfish">French Angelfish</a>'
p5625
sS'Care'
p5626
S'not very difficult'
p5627
sa(dp5628
S'Origin'
p5629
S'Indo-West Pacific'
p5630
sS'Scientific name'
p5631
S'Pomacanthus semicirculatus'
p5632
sS'Family'
p5633
S'Angelfish'
p5634
sS'Size (cm)'
p5635
S'40'
p5636
sS'Recommended tank size'
p5637
S'large'
p5638
sS'Most used common name'
p5639
S'<a href="http://saltwater.aqua-fish.net/?semicircle-angelfish">Semicircle Angelfish</a>'
p5640
sS'Care'
p5641
S'not very difficult'
p5642
sa(dp5643
S'Origin'
p5644
S'Indo-Pacific'
p5645
sS'Scientific name'
p5646
S'Pomacanthus sexstriatus'
p5647
sS'Family'
p5648
S'Angelfish'
p5649
sS'Size (cm)'
p5650
S'45'
p5651
sS'Recommended tank size'
p5652
S'very large'
p5653
sS'Most used common name'
p5654
S'<a href="http://saltwater.aqua-fish.net/?sixbar-angelfish">Sixbar Angelfish</a>'
p5655
sS'Care'
p5656
S'not very difficult'
p5657
sa(dp5658
S'Origin'
p5659
S'Indo-Pacific'
p5660
sS'Scientific name'
p5661
S'Pomacanthus xanthometopon'
p5662
sS'Family'
p5663
S'Angelfish'
p5664
sS'Size (cm)'
p5665
S'40'
p5666
sS'Recommended tank size'
p5667
S'large'
p5668
sS'Most used common name'
p5669
S'<a href="http://saltwater.aqua-fish.net/?yellowface-angelfish">Yellowface Angelfish</a>'
p5670
sS'Care'
p5671
S'not very difficult'
p5672
sa(dp5673
S'Origin'
p5674
S'Eastern Pacific'
p5675
sS'Scientific name'
p5676
S'Pomacanthus zonipectus'
p5677
sS'Family'
p5678
S'Angelfish'
p5679
sS'Size (cm)'
p5680
S'46'
p5681
sS'Recommended tank size'
p5682
S'large'
p5683
sS'Most used common name'
p5684
S'<a href="http://saltwater.aqua-fish.net/?cortez-angelfish">Cortez Angelfish</a>'
p5685
sS'Care'
p5686
S'not very difficult'
p5687
sa(dp5688
S'Origin'
p5689
S'Eastern Indian Ocean'
p5690
sS'Scientific name'
p5691
S'Pomacentrus alleni'
p5692
sS'Family'
p5693
S'Damsel'
p5694
sS'Size (cm)'
p5695
S'6'
sS'Recommended tank size'
p5696
S'medium'
p5697
sS'Most used common name'
p5698
S'<a href="http://saltwater.aqua-fish.net/?andaman-damsel">Andaman Damsel</a>'
p5699
sS'Care'
p5700
S'easy'
p5701
sa(dp5702
S'Origin'
p5703
S'Western Pacific'
p5704
sS'Scientific name'
p5705
S'Pomacentrus moluccensis'
p5706
sS'Family'
p5707
S'Damsel'
p5708
sS'Size (cm)'
p5709
S'9'
sS'Recommended tank size'
p5710
S'medium'
p5711
sS'Most used common name'
p5712
S'<a href="http://saltwater.aqua-fish.net/?lemon-damsel">Lemon Damsel</a>'
p5713
sS'Care'
p5714
S'easy'
p5715
sa(dp5716
S'Origin'
p5717
S'Indo-Pacific'
p5718
sS'Scientific name'
p5719
S'Pomacentrus pavo'
p5720
sS'Family'
p5721
S'Damsel'
p5722
sS'Size (cm)'
p5723
S'9'
sS'Recommended tank size'
p5724
S'medium'
p5725
sS'Most used common name'
p5726
S'<a href="http://saltwater.aqua-fish.net/?sapphire-damsel">Sapphire Damsel</a>'
p5727
sS'Care'
p5728
S'easy'
p5729
sa(dp5730
S'Origin'
p5731
S'Indian Ocean'
p5732
sS'Scientific name'
p5733
S'Pomacentrus similis'
p5734
sS'Family'
p5735
S'Damsel'
p5736
sS'Size (cm)'
p5737
S'7'
sS'Recommended tank size'
p5738
S'medium'
p5739
sS'Most used common name'
p5740
S'<a href="http://saltwater.aqua-fish.net/?similar-damsel">Similar Damsel</a>'
p5741
sS'Care'
p5742
S'easy'
p5743
sa(dp5744
S'Origin'
p5745
S'Indo-West Pacific'
p5746
sS'Scientific name'
p5747
S'Premnas biaculeatus'
p5748
sS'Family'
p5749
S'Damsel'
p5750
sS'Size (cm)'
p5751
S'17'
p5752
sS'Recommended tank size'
p5753
S'medium'
p5754
sS'Most used common name'
p5755
S'<a href="http://saltwater.aqua-fish.net/?spinecheek-anemonefish">Spinecheek Anemonefish</a>'
p5756
sS'Care'
p5757
S'not very difficult'
p5758
sa(dp5759
S'Origin'
p5760
S'Indo-Pacific'
p5761
sS'Scientific name'
p5762
S'Priolepis semidoliata'
p5763
sS'Family'
p5764
S'Goby'
p5765
sS'Size (cm)'
p5766
S'3'
sS'Recommended tank size'
p5767
S'medium'
p5768
sS'Most used common name'
p5769
S'<a href="http://saltwater.aqua-fish.net/?half-barred-goby">Half-Barred Goby</a>'
p5770
sS'Care'
p5771
S'easy'
p5772
sa(dp5773
S'Origin'
p5774
S'Eastern Central Pacific'
p5775
sS'Scientific name'
p5776
S'Prionurus punctatus'
p5777
sS'Family'
p5778
S'Tang'
p5779
sS'Size (cm)'
p5780
S'60'
p5781
sS'Recommended tank size'
p5782
S'very large'
p5783
sS'Most used common name'
p5784
S'<a href="http://saltwater.aqua-fish.net/?yellowtail-surgeonfish">Yellowtail surgeonfish</a>'
p5785
sS'Care'
p5786
S'not very difficult'
p5787
sa(dp5788
S'Origin'
p5789
S'Eastern Pacific'
p5790
sS'Scientific name'
p5791
S'Pristigenys serrula'
p5792
sS'Family'
p5793
S'Squirrelfish'
p5794
sS'Size (cm)'
p5795
S'34'
p5796
sS'Recommended tank size'
p5797
S'large'
p5798
sS'Most used common name'
p5799
S'<a href="http://saltwater.aqua-fish.net/?popeye-catalufa">Popeye Catalufa</a>'
p5800
sS'Care'
p5801
S'easy'
p5802
sa(dp5803
S'Origin'
p5804
S'Indo-Pacific'
p5805
sS'Scientific name'
p5806
S'Pseudanthias bicolor'
p5807
sS'Family'
p5808
S'Sea Basses'
p5809
sS'Size (cm)'
p5810
S'13'
p5811
sS'Recommended tank size'
p5812
S'medium'
p5813
sS'Most used common name'
p5814
S'<a href="http://saltwater.aqua-fish.net/?bicolor-anthias">Bicolor Anthias</a>'
p5815
sS'Care'
p5816
S'easy'
p5817
sa(dp5818
S'Origin'
p5819
S'Western Central Pacific'
p5820
sS'Scientific name'
p5821
S'Pseudanthias huchtii'
p5822
sS'Family'
p5823
S'Basslets'
p5824
sS'Other identification'
p5825
S"Red-Cheeked Fairy Basslet, Pacific Basslet, Hucht's Sea Perch, Red-Cheeked Anthias"
p5826
sS'Size (cm)'
p5827
S'12'
p5828
sS'Recommended tank size'
p5829
S'medium'
p5830
sS'Most used common name'
p5831
S'<a href="http://saltwater.aqua-fish.net/?red-cheeked-fairy-basslet">Red-Cheeked Fairy Basslet</a>'
p5832
sS'Care'
p5833
S'easy'
p5834
sa(dp5835
S'Origin'
p5836
S'Pacific Ocean'
p5837
sS'Scientific name'
p5838
S'Pseudanthias pleurotaenia'
p5839
sS'Family'
p5840
S'Sea Basses'
p5841
sS'Size (cm)'
p5842
S'20'
p5843
sS'Recommended tank size'
p5844
S'large'
p5845
sS'Most used common name'
p5846
S'<a href="http://saltwater.aqua-fish.net/?square-spot-fairy-basslet">Square-Spot Fairy Basslet</a>'
p5847
sS'Care'
p5848
S'easy'
p5849
sa(dp5850
S'Origin'
p5851
S'Indo-West Pacific'
p5852
sS'Scientific name'
p5853
S'Pseudanthias squamipinnis'
p5854
sS'Family'
p5855
S'Sea Basses'
p5856
sS'Size (cm)'
p5857
S'15'
p5858
sS'Recommended tank size'
p5859
S'medium'
p5860
sS'Most used common name'
p5861
S'<a href="http://saltwater.aqua-fish.net/?sea-goldie">Sea Goldie</a>'
p5862
sS'Care'
p5863
S'easy'
p5864
sa(dp5865
S'Origin'
p5866
S'Indo-West Pacific'
p5867
sS'Scientific name'
p5868
S'Pseudanthias tuka'
p5869
sS'Family'
p5870
S'Sea Basses'
p5871
sS'Size (cm)'
p5872
S'12'
p5873
sS'Recommended tank size'
p5874
S'medium'
p5875
sS'Most used common name'
p5876
S'<a href="http://saltwater.aqua-fish.net/?yellowstriped-fairy-basslet">Yellowstriped Fairy Basslet</a>'
p5877
sS'Care'
p5878
S'difficult'
p5879
sa(dp5880
S'Origin'
p5881
S'Indo-Pacific'
p5882
sS'Scientific name'
p5883
S'Pseudobalistes flavimarginatus'
p5884
sS'Family'
p5885
S'Triggers'
p5886
sS'Size (cm)'
p5887
S'60'
p5888
sS'Recommended tank size'
p5889
S'very large'
p5890
sS'Most used common name'
p5891
S'<a href="http://saltwater.aqua-fish.net/?yellowmargin-triggerfish">Yellowmargin Triggerfish</a>'
p5892
sS'Care'
p5893
S'not very difficult'
p5894
sa(dp5895
S'Origin'
p5896
S'Indo-Pacific'
p5897
sS'Scientific name'
p5898
S'Pseudobalistes fuscus'
p5899
sS'Family'
p5900
S'Triggers'
p5901
sS'Other identification'
p5902
S'Yellow-spotted Triggerfish, Blue Line Trigger, Rippled Triggerfish'
p5903
sS'Size (cm)'
p5904
S'55'
p5905
sS'Recommended tank size'
p5906
S'very large'
p5907
sS'Most used common name'
p5908
S'<a href="http://saltwater.aqua-fish.net/?yellow-spotted-triggerfish">Yellow-spotted Triggerfish</a>'
p5909
sS'Care'
p5910
S'not very difficult'
p5911
sa(dp5912
S'Origin'
p5913
S'Indo-Pacific'
p5914
sS'Scientific name'
p5915
S'Pseudocheilinus hexataenia'
p5916
sS'Family'
p5917
S'Wrasses'
p5918
sS'Size (cm)'
p5919
S'8'
sS'Recommended tank size'
p5920
S'medium'
p5921
sS'Most used common name'
p5922
S'<a href="http://saltwater.aqua-fish.net/?six-line-wrasse">Six Line Wrasse</a>'
p5923
sS'Care'
p5924
S'not very difficult'
p5925
sa(dp5926
S'Origin'
p5927
S'Indo-Pacific'
p5928
sS'Scientific name'
p5929
S'Pseudochromis diadema'
p5930
sS'Family'
p5931
S'Dottyback'
p5932
sS'Size (cm)'
p5933
S'6'
sS'Recommended tank size'
p5934
S'medium'
p5935
sS'Most used common name'
p5936
S'<a href="http://saltwater.aqua-fish.net/?diadem-dottyback">Diadem Dottyback</a>'
p5937
sS'Care'
p5938
S'easy'
p5939
sa(dp5940
S'Origin'
p5941
S'Western Indian Ocean'
p5942
sS'Scientific name'
p5943
S'Pseudochromis flavivertex'
p5944
sS'Family'
p5945
S'Dottyback'
p5946
sS'Other identification'
p5947
S'Blue Flavivertex Pseudochromis, Sunrise Dottyback'
p5948
sS'Size (cm)'
p5949
S'7'
sS'Recommended tank size'
p5950
S'medium'
p5951
sS'Most used common name'
p5952
S'<a href="http://saltwater.aqua-fish.net/?sunrise-dottyback">Sunrise Dottyback</a>'
p5953
sS'Care'
p5954
S'easy'
p5955
sa(dp5956
S'Origin'
p5957
S'Western Indian Ocean'
p5958
sS'Scientific name'
p5959
S'Pseudochromis fridmani'
p5960
sS'Family'
p5961
S'Dottyback'
p5962
sS'Other identification'
p5963
S'Orchid Dottyback, Purple Dottyback, Magenta and Strawberry Dottyback'
p5964
sS'Size (cm)'
p5965
S'7'
sS'Recommended tank size'
p5966
S'large'
p5967
sS'Most used common name'
p5968
S'<a href="http://saltwater.aqua-fish.net/?orchid-dottyback">Orchid Dottyback</a>'
p5969
sS'Care'
p5970
S'easy'
p5971
sa(dp5972
S'Origin'
p5973
S'Western Pacific'
p5974
sS'Scientific name'
p5975
S'Pseudochromis paccagnellae'
p5976
sS'Family'
p5977
S'Dottyback'
p5978
sS'Size (cm)'
p5979
S'7'
sS'Recommended tank size'
p5980
S'medium'
p5981
sS'Most used common name'
p5982
S'<a href="http://saltwater.aqua-fish.net/?royal-dottyback">Royal Dottyback</a>'
p5983
sS'Care'
p5984
S'easy'
p5985
sa(dp5986
S'Origin'
p5987
S'Western Pacific'
p5988
sS'Scientific name'
p5989
S'Pseudochromis porphyreus'
p5990
sS'Family'
p5991
S'Dottyback'
p5992
sS'Size (cm)'
p5993
S'6'
sS'Recommended tank size'
p5994
S'medium'
p5995
sS'Most used common name'
p5996
S'<a href="http://saltwater.aqua-fish.net/?magenta-dottyback">Magenta Dottyback</a>'
p5997
sS'Care'
p5998
S'easy'
p5999
sa(dp6000
S'Origin'
p6001
S'Indo-Pacific'
p6002
sS'Scientific name'
p6003
S'Pseudojuloides erythrops'
p6004
sS'Family'
p6005
S'Wrasses'
p6006
sS'Size (cm)'
p6007
S'10'
p6008
sS'Recommended tank size'
p6009
S'medium'
p6010
sS'Most used common name'
p6011
S'<a href="http://saltwater.aqua-fish.net/?redeye-wrasse">Redeye Wrasse</a>'
p6012
sS'Care'
p6013
S'easy'
p6014
sa(dp6015
S'Origin'
p6016
S'Western Central Pacific'
p6017
sS'Scientific name'
p6018
S'Pterapogon kauderni'
p6019
sS'Family'
p6020
S'Cardinal'
p6021
sS'Other identification'
p6022
S"Banggai Cardinal Fish, Kaudern's Cardinal, Longfin, Banner Cardinal"
p6023
sS'Size (cm)'
p6024
S'8'
sS'Recommended tank size'
p6025
S'medium'
p6026
sS'Most used common name'
p6027
S'<a href="http://saltwater.aqua-fish.net/?banggai-cardinal-fish">Banggai Cardinal Fish</a>'
p6028
sS'Care'
p6029
S'easy'
p6030
sa(dp6031
S'Origin'
p6032
S'Indo-Pacific'
p6033
sS'Scientific name'
p6034
S'Ptereleotris evides'
p6035
sS'Family'
p6036
S'Dartfish'
p6037
sS'Size (cm)'
p6038
S'14'
p6039
sS'Recommended tank size'
p6040
S'medium'
p6041
sS'Most used common name'
p6042
S'<a href="http://saltwater.aqua-fish.net/?blackfin-dartfish">Blackfin Dartfish</a>'
p6043
sS'Care'
p6044
S'easy'
p6045
sa(dp6046
S'Origin'
p6047
S'Pacific Ocean'
p6048
sS'Scientific name'
p6049
S'Ptereleotris hanae'
p6050
sS'Family'
p6051
S'Dartfish'
p6052
sS'Size (cm)'
p6053
S'12'
p6054
sS'Recommended tank size'
p6055
S'medium'
p6056
sS'Most used common name'
p6057
S'<a href="http://saltwater.aqua-fish.net/?blue-hana-goby">Blue Hana Goby</a>'
p6058
sS'Care'
p6059
S'easy'
p6060
sa(dp6061
S'Origin'
p6062
S'Indo-Pacific'
p6063
sS'Scientific name'
p6064
S'Ptereleotris zebra'
p6065
sS'Family'
p6066
S'Dartfish'
p6067
sS'Size (cm)'
p6068
S'12'
p6069
sS'Recommended tank size'
p6070
S'medium'
p6071
sS'Most used common name'
p6072
S'<a href="http://saltwater.aqua-fish.net/?chinese-zebra-goby">Chinese Zebra Goby</a>'
p6073
sS'Care'
p6074
S'easy'
p6075
sa(dp6076
S'Origin'
p6077
S'Indo-Pacific'
p6078
sS'Scientific name'
p6079
S'Pterois radiata'
p6080
sS'Family'
p6081
S'Scorpion'
p6082
sS'Other identification'
p6083
S'Radiata Lionfish, Radial Firefish'
p6084
sS'Size (cm)'
p6085
S'24'
p6086
sS'Recommended tank size'
p6087
S'large'
p6088
sS'Most used common name'
p6089
S'<a href="http://saltwater.aqua-fish.net/?radial-firefish">Radial Firefish</a>'
p6090
sS'Care'
p6091
S'not very difficult'
p6092
sa(dp6093
S'Origin'
p6094
S'Pacific Ocean'
p6095
sS'Scientific name'
p6096
S'Pterois volitans'
p6097
sS'Family'
p6098
S'Scorpion'
p6099
sS'Size (cm)'
p6100
S'38'
p6101
sS'Recommended tank size'
p6102
S'large'
p6103
sS'Most used common name'
p6104
S'<a href="http://saltwater.aqua-fish.net/?red-lionfish">Red Lionfish</a>'
p6105
sS'Care'
p6106
S'easy'
p6107
sa(dp6108
S'Origin'
p6109
S'Indo-Pacific'
p6110
sS'Scientific name'
p6111
S'Pygoplites diacanthus'
p6112
sS'Family'
p6113
S'Angelfish'
p6114
sS'Size (cm)'
p6115
S'25'
p6116
sS'Recommended tank size'
p6117
S'large'
p6118
sS'Most used common name'
p6119
S'<a href="http://saltwater.aqua-fish.net/?regal-angelfish">Regal Angelfish</a>'
p6120
sS'Care'
p6121
S'difficult'
p6122
sa(dp6123
S'Origin'
p6124
S'Indo-Pacific'
p6125
sS'Scientific name'
p6126
S'Rhinecanthus aculeatus'
p6127
sS'Family'
p6128
S'Triggers'
p6129
sS'Other identification'
p6130
S'Blackbar Triggerfish, HumaHuma Picasso Trigger'
p6131
sS'Size (cm)'
p6132
S'30'
p6133
sS'Recommended tank size'
p6134
S'large'
p6135
sS'Most used common name'
p6136
S'<a href="http://saltwater.aqua-fish.net/?blackbar-triggerfish">Blackbar Triggerfish</a>'
p6137
sS'Care'
p6138
S'easy'
p6139
sa(dp6140
S'Origin'
p6141
S'Indo-Pacific'
p6142
sS'Scientific name'
p6143
S'Rhinecanthus rectangulus'
p6144
sS'Family'
p6145
S'Triggers'
p6146
sS'Size (cm)'
p6147
S'30'
p6148
sS'Recommended tank size'
p6149
S'large'
p6150
sS'Most used common name'
p6151
S'<a href="http://saltwater.aqua-fish.net/?wedge-tail-triggerfish">Wedge-Tail Triggerfish</a>'
p6152
sS'Care'
p6153
S'easy'
p6154
sa(dp6155
S'Origin'
p6156
S'Indo-Pacific'
p6157
sS'Scientific name'
p6158
S'Rhinecanthus verrucosus'
p6159
sS'Family'
p6160
S'Triggers'
p6161
sS'Size (cm)'
p6162
S'23'
p6163
sS'Recommended tank size'
p6164
S'large'
p6165
sS'Most used common name'
p6166
S'<a href="http://saltwater.aqua-fish.net/?blackbelly-triggerfish">Blackbelly Triggerfish</a>'
p6167
sS'Care'
p6168
S'easy'
p6169
sa(dp6170
S'Origin'
p6171
S'Indo-West Pacific'
p6172
sS'Scientific name'
p6173
S'Rhinopias frondosa'
p6174
sS'Family'
p6175
S'Scorpion'
p6176
sS'Other identification'
p6177
S'Weedy Scorpionfish, Popeyed Scorpionfish'
p6178
sS'Size (cm)'
p6179
S'23'
p6180
sS'Recommended tank size'
p6181
S'medium'
p6182
sS'Most used common name'
p6183
S'<a href="http://saltwater.aqua-fish.net/?weedy-scorpionfish">Weedy Scorpionfish</a>'
p6184
sS'Care'
p6185
S'not very difficult'
p6186
sa(dp6187
S'Origin'
p6188
S'East Atlantic'
p6189
sS'Scientific name'
p6190
S'Salaria pavo'
p6191
sS'Family'
p6192
S'Combtooth Blenny'
p6193
sS'Size (cm)'
p6194
S'13'
p6195
sS'Recommended tank size'
p6196
S'medium'
p6197
sS'Most used common name'
p6198
S'<a href="http://saltwater.aqua-fish.net/?peacock-blenny">Peacock Blenny</a>'
p6199
sS'Care'
p6200
S'easy'
p6201
sa(dp6202
S'Origin'
p6203
S'Indo-Pacific'
p6204
sS'Scientific name'
p6205
S'Salarias fasciatus'
p6206
sS'Family'
p6207
S'Combtooth Blenny'
p6208
sS'Size (cm)'
p6209
S'14'
p6210
sS'Recommended tank size'
p6211
S'medium'
p6212
sS'Most used common name'
p6213
S'<a href="http://saltwater.aqua-fish.net/?jewelled-blenny">Jewelled Blenny</a>'
p6214
sS'Care'
p6215
S'not very difficult'
p6216
sa(dp6217
S'Origin'
p6218
S'Indo-Pacific'
p6219
sS'Scientific name'
p6220
S'Samariscus triocellatus'
p6221
sS'Family'
p6222
S'Crested Flounder'
p6223
sS'Size (cm)'
p6224
S'10'
p6225
sS'Recommended tank size'
p6226
S'medium'
p6227
sS'Most used common name'
p6228
S'<a href="http://saltwater.aqua-fish.net/?three-spot-righteye-flounder">Three-Spot Righteye Flounder</a>'
p6229
sS'Care'
p6230
S'not very difficult'
p6231
sa(dp6232
S'Origin'
p6233
S'Western Pacific'
p6234
sS'Scientific name'
p6235
S'Sargocentron cornutum'
p6236
sS'Family'
p6237
S'Squirrelfish'
p6238
sS'Size (cm)'
p6239
S'27'
p6240
sS'Recommended tank size'
p6241
S'large'
p6242
sS'Most used common name'
p6243
S'<a href="http://saltwater.aqua-fish.net/?threespot-squirrelfish">Threespot Squirrelfish</a>'
p6244
sS'Care'
p6245
S'easy'
p6246
sa(dp6247
S'Origin'
p6248
S'Indo-Pacific'
p6249
sS'Scientific name'
p6250
S'Sargocentron spiniferum'
p6251
sS'Family'
p6252
S'Squirrelfish'
p6253
sS'Size (cm)'
p6254
S'51'
p6255
sS'Recommended tank size'
p6256
S'large'
p6257
sS'Most used common name'
p6258
S'<a href="http://saltwater.aqua-fish.net/?sabre-squirrelfish">Sabre Squirrelfish</a>'
p6259
sS'Care'
p6260
S'not very difficult'
p6261
sa(dp6262
S'Origin'
p6263
S'Western Atlantic'
p6264
sS'Scientific name'
p6265
S'Sargocentron vexillarium'
p6266
sS'Family'
p6267
S'Squirrelfish'
p6268
sS'Size (cm)'
p6269
S'18'
p6270
sS'Recommended tank size'
p6271
S'medium'
p6272
sS'Most used common name'
p6273
S'<a href="http://saltwater.aqua-fish.net/?dusky-squirrelfish">Dusky Squirrelfish</a>'
p6274
sS'Care'
p6275
S'easy'
p6276
sa(dp6277
S'Origin'
p6278
S'Eastern Central Pacific'
p6279
sS'Scientific name'
p6280
S'Sargocentron xantherythrum'
p6281
sS'Family'
p6282
S'Squirrelfish'
p6283
sS'Size (cm)'
p6284
S'17'
p6285
sS'Recommended tank size'
p6286
S'large'
p6287
sS'Most used common name'
p6288
S'<a href="http://saltwater.aqua-fish.net/?hawaiian-squirrelfish">Hawaiian Squirrelfish</a>'
p6289
sS'Care'
p6290
S'easy'
p6291
sa(dp6292
S'Origin'
p6293
S'East Atlantic'
p6294
sS'Scientific name'
p6295
S'Sarpa salpa'
p6296
sS'Family'
p6297
S'Porgie'
p6298
sS'Size (cm)'
p6299
S'51'
p6300
sS'Recommended tank size'
p6301
S'very large'
p6302
sS'Most used common name'
p6303
S'<a href="http://saltwater.aqua-fish.net/?salema">Salema</a>'
p6304
sS'Care'
p6305
S'not very difficult'
p6306
sa(dp6307
S'Origin'
p6308
S'Eastern Indian Ocean'
p6309
sS'Scientific name'
p6310
S'Saurida undosquamis'
p6311
sS'Family'
p6312
S'Lizardfish'
p6313
sS'Size (cm)'
p6314
S'50'
p6315
sS'Recommended tank size'
p6316
S'very large'
p6317
sS'Most used common name'
p6318
S'<a href="http://saltwater.aqua-fish.net/?brushtooth-lizardfish">Brushtooth Lizardfish</a>'
p6319
sS'Care'
p6320
S'not very difficult'
p6321
sa(dp6322
S'Origin'
p6323
S'Indo-Pacific'
p6324
sS'Scientific name'
p6325
S'Scarus ghobban'
p6326
sS'Family'
p6327
S'Parrotfish'
p6328
sS'Size (cm)'
p6329
S'90'
p6330
sS'Recommended tank size'
p6331
S'very large'
p6332
sS'Most used common name'
p6333
S'<a href="http://saltwater.aqua-fish.net/?blue-barred-parrotfish">Blue-Barred Parrotfish</a>'
p6334
sS'Care'
p6335
S'difficult'
p6336
sa(dp6337
S'Origin'
p6338
S'Indo-Pacific'
p6339
sS'Scientific name'
p6340
S'Scarus niger'
p6341
sS'Family'
p6342
S'Parrotfish'
p6343
sS'Size (cm)'
p6344
S'40'
p6345
sS'Recommended tank size'
p6346
S'large'
p6347
sS'Most used common name'
p6348
S'<a href="http://saltwater.aqua-fish.net/?dusky-parrotfish">Dusky Parrotfish</a>'
p6349
sS'Care'
p6350
S'not very difficult'
p6351
sa(dp6352
S'Origin'
p6353
S'Indo-Pacific'
p6354
sS'Scientific name'
p6355
S'Scarus psittacus'
p6356
sS'Family'
p6357
S'Parrotfish'
p6358
sS'Size (cm)'
p6359
S'30'
p6360
sS'Recommended tank size'
p6361
S'large'
p6362
sS'Most used common name'
p6363
S'<a href="http://saltwater.aqua-fish.net/?common-parrotfish">Common Parrotfish</a>'
p6364
sS'Care'
p6365
S'not very difficult'
p6366
sa(dp6367
S'Origin'
p6368
S'Indo-West Pacific'
p6369
sS'Scientific name'
p6370
S'Scarus quoyi'
p6371
sS'Family'
p6372
S'Parrotfish'
p6373
sS'Size (cm)'
p6374
S'40'
p6375
sS'Recommended tank size'
p6376
S'large'
p6377
sS'Most used common name'
p6378
S'<a href="http://saltwater.aqua-fish.net/?quoys-parrotfish">Quoy\'s Parrotfish</a>'
p6379
sS'Care'
p6380
S'not very difficult'
p6381
sa(dp6382
S'Origin'
p6383
S'Indo-West Pacific'
p6384
sS'Scientific name'
p6385
S'Scolopsis bilineata'
p6386
sS'Family'
p6387
S'Threadfin Bream'
p6388
sS'Size (cm)'
p6389
S'23'
p6390
sS'Recommended tank size'
p6391
S'large'
p6392
sS'Most used common name'
p6393
S'<a href="http://saltwater.aqua-fish.net/?two-lined-monocle-bream">Two-Lined Monocle Bream</a>'
p6394
sS'Care'
p6395
S'easy'
p6396
sa(dp6397
S'Origin'
p6398
S'Western Pacific'
p6399
sS'Scientific name'
p6400
S'Scolopsis margaritifera'
p6401
sS'Family'
p6402
S'Threadfin Bream'
p6403
sS'Other identification'
p6404
S"Pearly Monocle Bream, Margarite's Spinecheek"
p6405
sS'Size (cm)'
p6406
S'28'
p6407
sS'Recommended tank size'
p6408
S'large'
p6409
sS'Most used common name'
p6410
S'<a href="http://saltwater.aqua-fish.net/?pearly-monocle-bream">Pearly Monocle Bream</a>'
p6411
sS'Care'
p6412
S'difficult'
p6413
sa(dp6414
S'Origin'
p6415
S'Indo-West Pacific'
p6416
sS'Scientific name'
p6417
S'Scolopsis monogramma'
p6418
sS'Family'
p6419
S'Threadfin Bream'
p6420
sS'Size (cm)'
p6421
S'35'
p6422
sS'Recommended tank size'
p6423
S'large'
p6424
sS'Most used common name'
p6425
S'<a href="http://saltwater.aqua-fish.net/?monogrammed-monocle-bream">Monogrammed Monocle Bream</a>'
p6426
sS'Care'
p6427
S'easy'
p6428
sa(dp6429
S'Origin'
p6430
S'Western Pacific'
p6431
sS'Scientific name'
p6432
S'Scolopsis trilineata'
p6433
sS'Family'
p6434
S'Whiptail Breams'
p6435
sS'Size (cm)'
p6436
S'20'
p6437
sS'Recommended tank size'
p6438
S'large'
p6439
sS'Most used common name'
p6440
S'<a href="http://saltwater.aqua-fish.net/?three-lined-monocle-bream">Three-Lined Monocle Bream</a>'
p6441
sS'Care'
p6442
S'easy'
p6443
sa(dp6444
S'Origin'
p6445
S'Indo-West Pacific'
p6446
sS'Scientific name'
p6447
S'Scolopsis vosmeri'
p6448
sS'Family'
p6449
S'Whiptail Breams'
p6450
sS'Size (cm)'
p6451
S'25'
p6452
sS'Recommended tank size'
p6453
S'large'
p6454
sS'Most used common name'
p6455
S'<a href="http://saltwater.aqua-fish.net/?whitecheek-monocle-bream">Whitecheek Monocle Bream</a>'
p6456
sS'Care'
p6457
S'easy'
p6458
sa(dp6459
S'Origin'
p6460
S'Indo-Pacific'
p6461
sS'Scientific name'
p6462
S'Scuticaria tigrina'
p6463
sS'Family'
p6464
S'Moray Eel'
p6465
sS'Other identification'
p6466
S'Spotted Eel, Spotted Snake Moray, Tiger Eel, Tiger Moray, Tiger Moray Eel, Tiger Reef Eel, Tiger Reef-Eel, Tiger Snake Moray'
p6467
sS'Size (cm)'
p6468
S'120'
p6469
sS'Recommended tank size'
p6470
S'very large'
p6471
sS'Most used common name'
p6472
S'<a href="http://saltwater.aqua-fish.net/?spotted-eel">Spotted Eel</a>'
p6473
sS'Care'
p6474
S'not very difficult'
p6475
sa(dp6476
S'Origin'
p6477
S'Eastern Pacific'
p6478
sS'Scientific name'
p6479
S'Selene brevoortii'
p6480
sS'Family'
p6481
S'Jacks and Pompanos'
p6482
sS'Other identification'
p6483
S'Mexican Lookdown, Hairfin Anchovy'
p6484
sS'Size (cm)'
p6485
S'38'
p6486
sS'Recommended tank size'
p6487
S'large'
p6488
sS'Most used common name'
p6489
S'<a href="http://saltwater.aqua-fish.net/?mexican-lookdown">Mexican Lookdown</a>'
p6490
sS'Care'
p6491
S'not very difficult'
p6492
sa(dp6493
S'Origin'
p6494
S'Western Atlantic'
p6495
sS'Scientific name'
p6496
S'Selene vomer'
p6497
sS'Family'
p6498
S'Jacks and Pompanos'
p6499
sS'Other identification'
p6500
S'Dollarfish, Flatjack, Hairfinned Dory, Hairfinned Silverfish, Horsehead, Lookdown, Moonfish, Moonshine, Wireback'
p6501
sS'Size (cm)'
p6502
S'48'
p6503
sS'Recommended tank size'
p6504
S'very large'
p6505
sS'Most used common name'
p6506
S'<a href="http://saltwater.aqua-fish.net/?dollarfish">Dollarfish</a>'
p6507
sS'Care'
p6508
S'not very difficult'
p6509
sa(dp6510
S'Origin'
p6511
S'Indo-West Pacific'
p6512
sS'Scientific name'
p6513
S'Selenotoca multifasciata'
p6514
sS'Family'
p6515
S'Scat'
p6516
sS'Size (cm)'
p6517
S'40'
p6518
sS'Recommended tank size'
p6519
S'large'
p6520
sS'Most used common name'
p6521
S'<a href="http://saltwater.aqua-fish.net/?spotbanded-scat">Spotbanded Scat</a>'
p6522
sS'Care'
p6523
S'not very difficult'
p6524
sa(dp6525
S'Origin'
p6526
S'Western Pacific'
p6527
sS'Scientific name'
p6528
S'Serranocirrhitus latus'
p6529
sS'Family'
p6530
S'Sea Basses'
p6531
sS'Other identification'
p6532
S'Hawkfish Anthias, Fathead Anthias'
p6533
sS'Size (cm)'
p6534
S'13'
p6535
sS'Recommended tank size'
p6536
S'medium'
p6537
sS'Most used common name'
p6538
S'<a href="http://saltwater.aqua-fish.net/?hawkfish-anthias">Hawkfish Anthias</a>'
p6539
sS'Care'
p6540
S'difficult'
p6541
sa(dp6542
S'Origin'
p6543
S'Western Atlantic'
p6544
sS'Scientific name'
p6545
S'Serranus tigrinus'
p6546
sS'Family'
p6547
S'Sea Basses'
p6548
sS'Size (cm)'
p6549
S'29'
p6550
sS'Recommended tank size'
p6551
S'large'
p6552
sS'Most used common name'
p6553
S'<a href="http://saltwater.aqua-fish.net/?harlequin-bass">Harlequin Bass</a>'
p6554
sS'Care'
p6555
S'not very difficult'
p6556
sa(dp6557
S'Origin'
p6558
S'Indo-West Pacific'
p6559
sS'Scientific name'
p6560
S'Siganus corallinus'
p6561
sS'Family'
p6562
S'Rabbitfish'
p6563
sS'Size (cm)'
p6564
S'35'
p6565
sS'Recommended tank size'
p6566
S'large'
p6567
sS'Most used common name'
p6568
S'<a href="http://saltwater.aqua-fish.net/?blue-spotted-spinefoot">Blue-Spotted Spinefoot</a>'
p6569
sS'Care'
p6570
S'easy'
p6571
sa(dp6572
S'Origin'
p6573
S'Western Pacific'
p6574
sS'Scientific name'
p6575
S'Siganus doliatus'
p6576
sS'Family'
p6577
S'Rabbitfish'
p6578
sS'Other identification'
p6579
S'Barred Spinefoot, Barred Rabbitfish, Pencil-Straeked Rabbitfish'
p6580
sS'Size (cm)'
p6581
S'25'
p6582
sS'Recommended tank size'
p6583
S'large'
p6584
sS'Most used common name'
p6585
S'<a href="http://saltwater.aqua-fish.net/?barred-rabbitfish">Barred Rabbitfish</a>'
p6586
sS'Care'
p6587
S'easy'
p6588
sa(dp6589
S'Origin'
p6590
S'Eastern Indian Ocean'
p6591
sS'Scientific name'
p6592
S'Siganus guttatus'
p6593
sS'Family'
p6594
S'Rabbitfish'
p6595
sS'Size (cm)'
p6596
S'40'
p6597
sS'Recommended tank size'
p6598
S'large'
p6599
sS'Most used common name'
p6600
S'<a href="http://saltwater.aqua-fish.net/?orange-spotted-spinefoot">Orange-Spotted Spinefoot</a>'
p6601
sS'Care'
p6602
S'easy'
p6603
sa(dp6604
S'Origin'
p6605
S'Indo-Pacific'
p6606
sS'Scientific name'
p6607
S'Siganus javus'
p6608
sS'Family'
p6609
S'Rabbitfish'
p6610
sS'Size (cm)'
p6611
S'51'
p6612
sS'Recommended tank size'
p6613
S'large'
p6614
sS'Most used common name'
p6615
S'<a href="http://saltwater.aqua-fish.net/?streaked-spinefoot">Streaked Spinefoot</a>'
p6616
sS'Care'
p6617
S'not very difficult'
p6618
sa(dp6619
S'Origin'
p6620
S'Eastern Indian Ocean'
p6621
sS'Scientific name'
p6622
S'Siganus magnificus'
p6623
sS'Family'
p6624
S'Rabbitfish'
p6625
sS'Size (cm)'
p6626
S'24'
p6627
sS'Recommended tank size'
p6628
S'large'
p6629
sS'Most used common name'
p6630
S'<a href="http://saltwater.aqua-fish.net/?magnificent-rabbitfish">Magnificent Rabbitfish</a>'
p6631
sS'Care'
p6632
S'easy'
p6633
sa(dp6634
S'Origin'
p6635
S'Indo-West Pacific'
p6636
sS'Scientific name'
p6637
S'Siganus spinus'
p6638
sS'Family'
p6639
S'Rabbitfish'
p6640
sS'Size (cm)'
p6641
S'29'
p6642
sS'Recommended tank size'
p6643
S'large'
p6644
sS'Most used common name'
p6645
S'<a href="http://saltwater.aqua-fish.net/?little-spinefoot">Little Spinefoot</a>'
p6646
sS'Care'
p6647
S'easy'
p6648
sa(dp6649
S'Origin'
p6650
S'Indo-West Pacific'
p6651
sS'Scientific name'
p6652
S'Siganus virgatus'
p6653
sS'Family'
p6654
S'Rabbitfish'
p6655
sS'Size (cm)'
p6656
S'30'
p6657
sS'Recommended tank size'
p6658
S'large'
p6659
sS'Most used common name'
p6660
S'<a href="http://saltwater.aqua-fish.net/?barhead-spinefoot">Barhead Spinefoot</a>'
p6661
sS'Care'
p6662
S'easy'
p6663
sa(dp6664
S'Origin'
p6665
S'Western Pacific'
p6666
sS'Scientific name'
p6667
S'Siganus vulpinus'
p6668
sS'Family'
p6669
S'Rabbitfish'
p6670
sS'Size (cm)'
p6671
S'25'
p6672
sS'Recommended tank size'
p6673
S'large'
p6674
sS'Most used common name'
p6675
S'<a href="http://saltwater.aqua-fish.net/?foxface">Foxface</a>'
p6676
sS'Care'
p6677
S'easy'
p6678
sa(dp6679
S'Origin'
p6680
S'Western Atlantic'
p6681
sS'Scientific name'
p6682
S'Sparisoma chrysopterum'
p6683
sS'Family'
p6684
S'Parrotfish'
p6685
sS'Size (cm)'
p6686
S'50'
p6687
sS'Recommended tank size'
p6688
S'very large'
p6689
sS'Most used common name'
p6690
S'<a href="http://saltwater.aqua-fish.net/?redtail-parrotfish">Redtail Parrotfish</a>'
p6691
sS'Care'
p6692
S'easy'
p6693
sa(dp6694
S'Origin'
p6695
S'Western Pacific'
p6696
sS'Scientific name'
p6697
S'Sphaeramia nematoptera'
p6698
sS'Family'
p6699
S'Cardinal'
p6700
sS'Size (cm)'
p6701
S'9'
sS'Recommended tank size'
p6702
S'medium'
p6703
sS'Most used common name'
p6704
S'<a href="http://saltwater.aqua-fish.net/?pajama-cardinalfish">Pajama Cardinalfish</a>'
p6705
sS'Care'
p6706
S'easy'
p6707
sa(dp6708
S'Origin'
p6709
S'Eastern Pacific'
p6710
sS'Scientific name'
p6711
S'Sphoeroides trichocephalus'
p6712
sS'Family'
p6713
S'Puffer'
p6714
sS'Size (cm)'
p6715
S'11'
p6716
sS'Recommended tank size'
p6717
S'medium'
p6718
sS'Most used common name'
p6719
S'<a href="http://saltwater.aqua-fish.net/?pygmy-puffer">Pygmy Puffer</a>'
p6720
sS'Care'
p6721
S'easy'
p6722
sa(dp6723
S'Origin'
p6724
S'Indo-West Pacific'
p6725
sS'Scientific name'
p6726
S'Stethojulis trilineata'
p6727
sS'Family'
p6728
S'Wrasses'
p6729
sS'Other identification'
p6730
S'Three-Lined Rainbowfish, Blue-Ribbon Wrasse'
p6731
sS'Size (cm)'
p6732
S'15'
p6733
sS'Recommended tank size'
p6734
S'medium'
p6735
sS'Most used common name'
p6736
S'<a href="http://saltwater.aqua-fish.net/?three-lined-rainbowfish">Three-Lined Rainbowfish</a>'
p6737
sS'Care'
p6738
S'easy'
p6739
sa(dp6740
S'Origin'
p6741
S'Western Central Atlantic'
p6742
sS'Scientific name'
p6743
S'Strongylura notata forsythia'
p6744
sS'Family'
p6745
S'Needlefish'
p6746
sS'Size (cm)'
p6747
S'60'
p6748
sS'Recommended tank size'
p6749
S'very large'
p6750
sS'Most used common name'
p6751
S'<a href="http://saltwater.aqua-fish.net/?redfin-needlefish">Redfin Needlefish</a>'
p6752
sS'Care'
p6753
S'not very difficult'
p6754
sa(dp6755
S'Origin'
p6756
S'East Atlantic'
p6757
sS'Scientific name'
p6758
S'Symphodus tinca'
p6759
sS'Family'
p6760
S'Wrasses'
p6761
sS'Size (cm)'
p6762
S'44'
p6763
sS'Recommended tank size'
p6764
S'large'
p6765
sS'Most used common name'
p6766
S'<a href="http://saltwater.aqua-fish.net/?east-atlantic-peacock-wrasse">East Atlantic Peacock Wrasse</a>'
p6767
sS'Care'
p6768
S'not very difficult'
p6769
sa(dp6770
S'Origin'
p6771
S'Western Pacific'
p6772
sS'Scientific name'
p6773
S'Symphorichthys spilurus'
p6774
sS'Family'
p6775
S'Snapper'
p6776
sS'Size (cm)'
p6777
S'60'
p6778
sS'Recommended tank size'
p6779
S'very large'
p6780
sS'Most used common name'
p6781
S'<a href="http://saltwater.aqua-fish.net/?sailfin-snapper">Sailfin Snapper</a>'
p6782
sS'Care'
p6783
S'difficult'
p6784
sa(dp6785
S'Origin'
p6786
S'Indo-West Pacific'
p6787
sS'Scientific name'
p6788
S'Synanceia horrida'
p6789
sS'Family'
p6790
S'Stonefish'
p6791
sS'Size (cm)'
p6792
S'50'
p6793
sS'Recommended tank size'
p6794
S'very large'
p6795
sS'Most used common name'
p6796
S'<a href="http://saltwater.aqua-fish.net/?estuarine-stonefish">Estuarine Stonefish</a>'
p6797
sS'Care'
p6798
S'difficult'
p6799
sa(dp6800
S'Origin'
p6801
S'Pacific Ocean'
p6802
sS'Scientific name'
p6803
S'Synchiropus ocellatus'
p6804
sS'Family'
p6805
S'Dragonet'
p6806
sS'Size (cm)'
p6807
S'8'
sS'Recommended tank size'
p6808
S'medium'
p6809
sS'Most used common name'
p6810
S'<a href="http://saltwater.aqua-fish.net/?ocellated-dragonet">Ocellated Dragonet</a>'
p6811
sS'Care'
p6812
S'difficult'
p6813
sa(dp6814
S'Origin'
p6815
S'Indo-West Pacific'
p6816
sS'Scientific name'
p6817
S'Synchiropus picturatus'
p6818
sS'Family'
p6819
S'Dragonet'
p6820
sS'Size (cm)'
p6821
S'7'
sS'Recommended tank size'
p6822
S'medium'
p6823
sS'Most used common name'
p6824
S'<a href="http://saltwater.aqua-fish.net/?picturesque-dragonet">Picturesque Dragonet</a>'
p6825
sS'Care'
p6826
S'difficult'
p6827
sa(dp6828
S'Origin'
p6829
S'Western Pacific'
p6830
sS'Scientific name'
p6831
S'Synchiropus splendidus'
p6832
sS'Family'
p6833
S'Dragonet'
p6834
sS'Size (cm)'
p6835
S'6'
sS'Recommended tank size'
p6836
S'medium'
p6837
sS'Most used common name'
p6838
S'<a href="http://saltwater.aqua-fish.net/?mandarinfish">Mandarinfish</a>'
p6839
sS'Care'
p6840
S'difficult'
p6841
sa(dp6842
S'Origin'
p6843
S'Indo-Pacific'
p6844
sS'Scientific name'
p6845
S'Taenianotus triacanthus'
p6846
sS'Family'
p6847
S'Scorpion'
p6848
sS'Size (cm)'
p6849
S'10'
p6850
sS'Recommended tank size'
p6851
S'medium'
p6852
sS'Most used common name'
p6853
S'<a href="http://saltwater.aqua-fish.net/?leaf-scorpionfish">Leaf Scorpionfish</a>'
p6854
sS'Care'
p6855
S'not very difficult'
p6856
sa(dp6857
S'Origin'
p6858
S'Indo-West Pacific'
p6859
sS'Scientific name'
p6860
S'Taeniura lymma'
p6861
sS'Family'
p6862
S'Stingray'
p6863
sS'Size (cm)'
p6864
S'70'
p6865
sS'Recommended tank size'
p6866
S'very large'
p6867
sS'Most used common name'
p6868
S'<a href="http://saltwater.aqua-fish.net/?bluespotted-ribbontail-ray">Bluespotted Ribbontail Ray</a>'
p6869
sS'Care'
p6870
S'difficult'
p6871
sa(dp6872
S'Origin'
p6873
S'Indo-Pacific'
p6874
sS'Scientific name'
p6875
S'Terapon jarbua'
p6876
sS'Family'
p6877
S'Grunters'
p6878
sS'Other identification'
p6879
S'Jarbua Terapon, Crescent-Banded Grunter'
p6880
sS'Size (cm)'
p6881
S'40'
p6882
sS'Recommended tank size'
p6883
S'large'
p6884
sS'Most used common name'
p6885
S'<a href="http://saltwater.aqua-fish.net/?jarbua-terapon">Jarbua Terapon</a>'
p6886
sS'Care'
p6887
S'not very difficult'
p6888
sa(dp6889
S'Origin'
p6890
S'Indo-West Pacific'
p6891
sS'Scientific name'
p6892
S'Tetrosomus gibbosus'
p6893
sS'Family'
p6894
S'Boxfish'
p6895
sS'Size (cm)'
p6896
S'30'
p6897
sS'Recommended tank size'
p6898
S'large'
p6899
sS'Most used common name'
p6900
S'<a href="http://saltwater.aqua-fish.net/?humpback-turretfish">Humpback Turretfish</a>'
p6901
sS'Care'
p6902
S'difficult'
p6903
sa(dp6904
S'Origin'
p6905
S'Eastern Central Pacific'
p6906
sS'Scientific name'
p6907
S'Thalassoma duperrey'
p6908
sS'Family'
p6909
S'Wrasses'
p6910
sS'Size (cm)'
p6911
S'30'
p6912
sS'Recommended tank size'
p6913
S'large'
p6914
sS'Most used common name'
p6915
S'<a href="http://saltwater.aqua-fish.net/?saddle-wrasse">Saddle Wrasse</a>'
p6916
sS'Care'
p6917
S'easy'
p6918
sa(dp6919
S'Origin'
p6920
S'Indo-Pacific'
p6921
sS'Scientific name'
p6922
S'Thalassoma hardwicke'
p6923
sS'Family'
p6924
S'Wrasses'
p6925
sS'Size (cm)'
p6926
S'20'
p6927
sS'Recommended tank size'
p6928
S'large'
p6929
sS'Most used common name'
p6930
S'<a href="http://saltwater.aqua-fish.net/?sixbar-wrasse">Sixbar Wrasse</a>'
p6931
sS'Care'
p6932
S'not very difficult'
p6933
sa(dp6934
S'Origin'
p6935
S'Eastern Pacific'
p6936
sS'Scientific name'
p6937
S'Thalassoma lucasanum'
p6938
sS'Family'
p6939
S'Wrasses'
p6940
sS'Size (cm)'
p6941
S'15'
p6942
sS'Recommended tank size'
p6943
S'medium'
p6944
sS'Most used common name'
p6945
S'<a href="http://saltwater.aqua-fish.net/?cortez-rainbow-wrasse">Cortez Rainbow Wrasse</a>'
p6946
sS'Care'
p6947
S'not very difficult'
p6948
sa(dp6949
S'Origin'
p6950
S'Indo-Pacific'
p6951
sS'Scientific name'
p6952
S'Thalassoma lunare'
p6953
sS'Family'
p6954
S'Wrasses'
p6955
sS'Size (cm)'
p6956
S'25'
p6957
sS'Recommended tank size'
p6958
S'large'
p6959
sS'Most used common name'
p6960
S'<a href="http://saltwater.aqua-fish.net/?moon-wrasse">Moon Wrasse</a>'
p6961
sS'Care'
p6962
S'not very difficult'
p6963
sa(dp6964
S'Origin'
p6965
S'East Atlantic'
p6966
sS'Scientific name'
p6967
S'Thalassoma pavo'
p6968
sS'Family'
p6969
S'Wrasses'
p6970
sS'Size (cm)'
p6971
S'25'
p6972
sS'Recommended tank size'
p6973
S'large'
p6974
sS'Most used common name'
p6975
S'<a href="http://saltwater.aqua-fish.net/?ornate-wrasse">Ornate Wrasse</a>'
p6976
sS'Care'
p6977
S'not very difficult'
p6978
sa(dp6979
S'Origin'
p6980
S'Western Indian Ocean'
p6981
sS'Scientific name'
p6982
S'Thalassoma rueppellii'
p6983
sS'Family'
p6984
S'Wrasses'
p6985
sS'Size (cm)'
p6986
S'20'
p6987
sS'Recommended tank size'
p6988
S'large'
p6989
sS'Most used common name'
p6990
S'<a href="http://saltwater.aqua-fish.net/?klunzingers-wrasse">Klunzinger\'s Wrasse</a>'
p6991
sS'Care'
p6992
S'not very difficult'
p6993
sa(dp6994
S'Origin'
p6995
S'Eastern Pacific'
p6996
sS'Scientific name'
p6997
S'Triakis semifasciata'
p6998
sS'Family'
p6999
S'Houndshark'
p7000
sS'Size (cm)'
p7001
S'200'
p7002
sS'Recommended tank size'
p7003
S'very large'
p7004
sS'Most used common name'
p7005
S'<a href="http://saltwater.aqua-fish.net/?leopard-shark">Leopard Shark</a>'
p7006
sS'Care'
p7007
S'difficult'
p7008
sa(dp7009
S'Origin'
p7010
S'Eastern Indian Ocean'
p7011
sS'Scientific name'
p7012
S'Trygonorrhina fasciata'
p7013
sS'Family'
p7014
S'Guitarfishes'
p7015
sS'Other identification'
p7016
S'Southern Fiddler, Banjo Shark'
p7017
sS'Size (cm)'
p7018
S'130'
p7019
sS'Recommended tank size'
p7020
S'very large'
p7021
sS'Most used common name'
p7022
S'<a href="http://saltwater.aqua-fish.net/?banjo-shark">Banjo Shark</a>'
p7023
sS'Care'
p7024
S'difficult'
p7025
sa(dp7026
S'Origin'
p7027
S'Indo-West Pacific'
p7028
sS'Scientific name'
p7029
S'Upeneus tragula'
p7030
sS'Family'
p7031
S'Goatfish'
p7032
sS'Size (cm)'
p7033
S'30'
p7034
sS'Recommended tank size'
p7035
S'large'
p7036
sS'Most used common name'
p7037
S'<a href="http://saltwater.aqua-fish.net/?freckled-goatfish">Freckled Goatfish</a>'
p7038
sS'Care'
p7039
S'easy'
p7040
sa(dp7041
S'Origin'
p7042
S'Indo-Pacific'
p7043
sS'Scientific name'
p7044
S'Valenciennea puellaris'
p7045
sS'Family'
p7046
S'Goby'
p7047
sS'Size (cm)'
p7048
S'20'
p7049
sS'Recommended tank size'
p7050
S'large'
p7051
sS'Most used common name'
p7052
S'<a href="http://saltwater.aqua-fish.net/?maiden-goby">Maiden Goby</a>'
p7053
sS'Care'
p7054
S'easy'
p7055
sa(dp7056
S'Origin'
p7057
S'Indo-Pacific'
p7058
sS'Scientific name'
p7059
S'Valenciennea sexguttata'
p7060
sS'Family'
p7061
S'Goby'
p7062
sS'Size (cm)'
p7063
S'14'
p7064
sS'Recommended tank size'
p7065
S'medium'
p7066
sS'Most used common name'
p7067
S'<a href="http://saltwater.aqua-fish.net/?sixspot-goby">Sixspot Goby</a>'
p7068
sS'Care'
p7069
S'easy'
p7070
sa(dp7071
S'Origin'
p7072
S'Indo-Pacific'
p7073
sS'Scientific name'
p7074
S'Valenciennea strigata'
p7075
sS'Family'
p7076
S'Goby'
p7077
sS'Size (cm)'
p7078
S'18'
p7079
sS'Recommended tank size'
p7080
S'medium'
p7081
sS'Most used common name'
p7082
S'<a href="http://saltwater.aqua-fish.net/?blueband-goby">Blueband Goby</a>'
p7083
sS'Care'
p7084
S'easy'
p7085
sa(dp7086
S'Origin'
p7087
S'Indo-Pacific'
p7088
sS'Scientific name'
p7089
S'Variola louti'
p7090
sS'Family'
p7091
S'Grouper'
p7092
sS'Size (cm)'
p7093
S'80'
p7094
sS'Recommended tank size'
p7095
S'large'
p7096
sS'Most used common name'
p7097
S'<a href="http://saltwater.aqua-fish.net/?yellow-edged-lyretail">Yellow-Edged Lyretail</a>'
p7098
sS'Care'
p7099
S'easy'
p7100
sa(dp7101
S'Origin'
p7102
S'Indo-Pacific'
p7103
sS'Scientific name'
p7104
S'Xanthichthys auromarginatus'
p7105
sS'Family'
p7106
S'Triggers'
p7107
sS'Other identification'
p7108
S'Gilded Triggerfish, Blue Chin Triggerfish, Blue Throat Triggerfish'
p7109
sS'Size (cm)'
p7110
S'30'
p7111
sS'Recommended tank size'
p7112
S'large'
p7113
sS'Most used common name'
p7114
S'<a href="http://saltwater.aqua-fish.net/?gilded-triggerfish">Gilded Triggerfish</a>'
p7115
sS'Care'
p7116
S'not very difficult'
p7117
sa(dp7118
S'Origin'
p7119
S'Indo-Pacific'
p7120
sS'Scientific name'
p7121
S'Xanthichthys caeruleolineatus'
p7122
sS'Family'
p7123
S'Triggers'
p7124
sS'Other identification'
p7125
S'Bluelined Triggerfish, Gold Back Triggerfish'
p7126
sS'Size (cm)'
p7127
S'35'
p7128
sS'Recommended tank size'
p7129
S'very large'
p7130
sS'Most used common name'
p7131
S'<a href="http://saltwater.aqua-fish.net/?bluelined-triggerfish">Bluelined Triggerfish</a>'
p7132
sS'Care'
p7133
S'not very difficult'
p7134
sa(dp7135
S'Origin'
p7136
S'Western Pacific'
p7137
sS'Scientific name'
p7138
S'Xanthichthys mento'
p7139
sS'Family'
p7140
S'Triggers'
p7141
sS'Size (cm)'
p7142
S'30'
p7143
sS'Recommended tank size'
p7144
S'large'
p7145
sS'Most used common name'
p7146
S'<a href="http://saltwater.aqua-fish.net/?redtail-triggerfish">Redtail Triggerfish</a>'
p7147
sS'Care'
p7148
S'easy'
p7149
sa(dp7150
S'Origin'
p7151
S'Indo-Pacific'
p7152
sS'Scientific name'
p7153
S'Zanclus cornutus'
p7154
sS'Family'
p7155
S'Moorish Idol'
p7156
sS'Size (cm)'
p7157
S'25'
p7158
sS'Recommended tank size'
p7159
S'very large'
p7160
sS'Most used common name'
p7161
S'<a href="http://saltwater.aqua-fish.net/?moorish-idol">Moorish Idol</a>'
p7162
sS'Care'
p7163
S'difficult'
p7164
sa(dp7165
S'Origin'
p7166
S'Indian Ocean'
p7167
sS'Scientific name'
p7168
S'Zebrasoma desjardinii'
p7169
sS'Family'
p7170
S'Tang'
p7171
sS'Size (cm)'
p7172
S'40'
p7173
sS'Recommended tank size'
p7174
S'large'
p7175
sS'Most used common name'
p7176
S'<a href="http://saltwater.aqua-fish.net/?desjardins-sailfin-tang">Desjardin\'s Sailfin Tang</a>'
p7177
sS'Care'
p7178
S'not very difficult'
p7179
sa(dp7180
S'Origin'
p7181
S'Pacific Ocean'
p7182
sS'Scientific name'
p7183
S'Zebrasoma flavescens'
p7184
sS'Family'
p7185
S'Tang'
p7186
sS'Size (cm)'
p7187
S'20'
p7188
sS'Recommended tank size'
p7189
S'large'
p7190
sS'Most used common name'
p7191
S'<a href="http://saltwater.aqua-fish.net/?yellow-tang">Yellow Tang</a>'
p7192
sS'Care'
p7193
S'not very difficult'
p7194
sa(dp7195
S'Origin'
p7196
S'Western Indian Ocean'
p7197
sS'Scientific name'
p7198
S'Zebrasoma gemmatum'
p7199
sS'Family'
p7200
S'Tang'
p7201
sS'Size (cm)'
p7202
S'22'
p7203
sS'Recommended tank size'
p7204
S'large'
p7205
sS'Most used common name'
p7206
S'<a href="http://saltwater.aqua-fish.net/?spotted-tang">Spotted Tang</a>'
p7207
sS'Care'
p7208
S'not very difficult'
p7209
sa(dp7210
S'Origin'
p7211
S'Indo-Pacific'
p7212
sS'Scientific name'
p7213
S'Zebrasoma scopas'
p7214
sS'Family'
p7215
S'Tang'
p7216
sS'Size (cm)'
p7217
S'40'
p7218
sS'Recommended tank size'
p7219
S'large'
p7220
sS'Most used common name'
p7221
S'<a href="http://saltwater.aqua-fish.net/?twotone-tang">Twotone Tang</a>'
p7222
sS'Care'
p7223
S'not very difficult'
p7224
sa(dp7225
S'Origin'
p7226
S'Western Indian Ocean'
p7227
sS'Scientific name'
p7228
S'Zebrasoma veliferum'
p7229
sS'Family'
p7230
S'Tang'
p7231
sS'Size (cm)'
p7232
S'40'
p7233
sS'Recommended tank size'
p7234
S'large'
p7235
sS'Most used common name'
p7236
S'<a href="http://saltwater.aqua-fish.net/?sailfin-tang">Sailfin Tang</a>'
p7237
sS'Care'
p7238
S'not very difficult'
p7239
sa(dp7240
S'Origin'
p7241
S'Western Indian Ocean'
p7242
sS'Scientific name'
p7243
S'Zebrasoma xanthurum'
p7244
sS'Family'
p7245
S'Tang'
p7246
sS'Size (cm)'
p7247
S'22'
p7248
sS'Recommended tank size'
p7249
S'large'
p7250
sS'Most used common name'
p7251
S'<a href="http://saltwater.aqua-fish.net/?yellowtail-tang">Yellowtail Tang</a>'
p7252
sS'Care'
p7253
S'not very difficult'
p7254
sa.