(lp1
(dp2
S'Origin'
p3
S'East Asia'
p4
sS'Substrate'
p5
S'Gravel'
p6
sS'Temperature'
p7
S'15-21 &#xB0;C'
p8
sS'dGH'
p9
S'4-18'
p10
sS'Photo URL'
p11
S'http://www.aqua-fish.net/imgs/plants/acorus-gramineus-profile.jpg'
p12
sS'Propagation'
p13
S'Rhizome'
p14
sS'Lighting'
p15
S'Medium'
p16
sS'Growth speed'
p17
S'Slow'
p18
sS'ph'
p19
S'6.8-7.5'
p20
sS'Place in the aquarium'
p21
S'Middle'
p22
sS'Plant name'
p23
S'Acorus gramineus'
p24
sS'Size'
p25
S'15-30 cm'
p26
sa(dp27
S'Origin'
p28
S'East Asia'
p29
sS'Substrate'
p30
S'Gravel'
p31
sS'Temperature'
p32
S'19-22 &#xB0;C'
p33
sS'dGH'
p34
S'4-18'
p35
sS'Photo URL'
p36
S'http://www.aqua-fish.net/imgs/plants/139.jpg'
p37
sS'Propagation'
p38
S'Rhizome'
p39
sS'Lighting'
p40
S'Bright'
p41
sS'Growth speed'
p42
S'Slow'
p43
sS'ph'
p44
S'6.4-7.2'
p45
sS'Place in the aquarium'
p46
S'Middle'
p47
sS'Plant name'
p48
S'Acorus gramineus pusillus'
p49
sS'Size'
p50
S'15-100 cm'
p51
sa(dp52
S'Origin'
p53
S'East Asia'
p54
sS'Substrate'
p55
S'Fine gravel'
p56
sS'Temperature'
p57
S'22-28 &#xB0;C'
p58
sS'dGH'
p59
S'4-12'
p60
sS'Photo URL'
p61
S'http://www.aqua-fish.net/imgs/plants/090.jpg'
p62
sS'Propagation'
p63
S'Cuttings'
p64
sS'Lighting'
p65
S'Medium'
p66
sS'Growth speed'
p67
S'Slow'
p68
sS'ph'
p69
S'6-7.5'
p70
sS'Place in the aquarium'
p71
S'Middle'
p72
sS'Plant name'
p73
S'Aglaonema &quot;Silver Queen&quot;'
p74
sS'Size'
p75
S'20-40 cm'
p76
sa(dp77
S'Origin'
p78
S'South Asia'
p79
sS'Substrate'
p80
S'Sand'
p81
sS'Temperature'
p82
S'22-28 &#xB0;C'
p83
sS'dGH'
p84
S'4-12'
p85
sS'Photo URL'
p86
S'http://www.aqua-fish.net/imgs/plants/069.jpg'
p87
sS'Propagation'
p88
S'Rhizome'
p89
sS'Lighting'
p90
S'Medium'
p91
sS'Growth speed'
p92
S'Slow'
p93
sS'ph'
p94
S'6-8'
p95
sS'Place in the aquarium'
p96
S'Middle'
p97
sS'Plant name'
p98
S'Aglaonema simplex'
p99
sS'Size'
p100
S'20-40 cm'
p101
sa(dp102
S'Origin'
p103
S'South America'
p104
sS'Substrate'
p105
S'Fine gravel'
p106
sS'Temperature'
p107
S'23-30 &#xB0;C'
p108
sS'dGH'
p109
S'4-12'
p110
sS'Photo URL'
p111
S'http://www.aqua-fish.net/imgs/plants/026.jpg'
p112
sS'Propagation'
p113
S'Cuttings'
p114
sS'Lighting'
p115
S'Bright'
p116
sS'Growth speed'
p117
S'Slow'
p118
sS'ph'
p119
S'6.2-7.1'
p120
sS'Place in the aquarium'
p121
S'Middle'
p122
sS'Plant name'
p123
S'Alternanthera reineckii'
p124
sS'Size'
p125
S'25-50 cm'
p126
sa(dp127
S'Origin'
p128
S'South America'
p129
sS'Substrate'
p130
S'Fine gravel'
p131
sS'Temperature'
p132
S'18-20 &#xB0;C'
p133
sS'dGH'
p134
S'4-12'
p135
sS'Photo URL'
p136
S'http://www.aqua-fish.net/imgs/plants/068.jpg'
p137
sS'Propagation'
p138
S'Cuttings'
p139
sS'Lighting'
p140
S'Bright'
p141
sS'Growth speed'
p142
S'Slow'
p143
sS'ph'
p144
S'5.8-7.2'
p145
sS'Place in the aquarium'
p146
S'Background'
p147
sS'Plant name'
p148
S'Alternanthera rosaefolia'
p149
sS'Size'
p150
S'30-50 cm'
p151
sa(dp152
S'Origin'
p153
S'Africa'
p154
sS'Substrate'
p155
S'Gravel'
p156
sS'Temperature'
p157
S'20-28 &#xB0;C'
p158
sS'dGH'
p159
S'4-12'
p160
sS'Photo URL'
p161
S'http://www.aqua-fish.net/imgs/plants/091.jpg'
p162
sS'Propagation'
p163
S'Cuttings'
p164
sS'Lighting'
p165
S'Bright'
p166
sS'Growth speed'
p167
S'Fast'
p168
sS'ph'
p169
S'6-8'
p170
sS'Place in the aquarium'
p171
S'Background'
p172
sS'Plant name'
p173
S'Ammania gracilis'
p174
sS'Size'
p175
S'20-50 cm'
p176
sa(dp177
S'Origin'
p178
S'Africa'
p179
sS'Substrate'
p180
S'Fine gravel'
p181
sS'Temperature'
p182
S'20-26 &#xB0;C'
p183
sS'dGH'
p184
S'4-12'
p185
sS'Photo URL'
p186
S'http://www.aqua-fish.net/imgs/plants/066.jpg'
p187
sS'Propagation'
p188
S'Cuttings'
p189
sS'Lighting'
p190
S'Bright'
p191
sS'Growth speed'
p192
S'Slow'
p193
sS'ph'
p194
S'6.5-7'
p195
sS'Place in the aquarium'
p196
S'Background'
p197
sS'Plant name'
p198
S'Ammania senegalensis'
p199
sS'Size'
p200
S'30-45 cm'
p201
sa(dp202
S'Origin'
p203
S'Africa'
p204
sS'Substrate'
p205
S'Fine gravel'
p206
sS'Temperature'
p207
S'23-27 &#xB0;C'
p208
sS'dGH'
p209
S'7-15'
p210
sS'Photo URL'
p211
S'http://www.aqua-fish.net/imgs/plants/anubias-afzelii.jpg'
p212
sS'Propagation'
p213
S'Rhizome'
p214
sS'Lighting'
p215
S'Medium'
p216
sS'Growth speed'
p217
S'Slow'
p218
sS'ph'
p219
S'6-8'
p220
sS'Place in the aquarium'
p221
S'Background'
p222
sS'Plant name'
p223
S'Anubias afzelii'
p224
sS'Size'
p225
S'15-30 cm'
p226
sa(dp227
S'Origin'
p228
S'Africa'
p229
sS'Substrate'
p230
S'Fine gravel'
p231
sS'Temperature'
p232
S'20-30 &#xB0;C'
p233
sS'dGH'
p234
S'4-18'
p235
sS'Photo URL'
p236
S'http://www.aqua-fish.net/imgs/plants/anubias-barteri.jpg'
p237
sS'Propagation'
p238
S'Rhizome'
p239
sS'Lighting'
p240
S'Medium'
p241
sS'Growth speed'
p242
S'Slow'
p243
sS'ph'
p244
S'6-7.5'
p245
sS'Place in the aquarium'
p246
S'Middle'
p247
sS'Plant name'
p248
S'Anubias barteri'
p249
sS'Size'
p250
S'25-40 cm'
p251
sa(dp252
S'Origin'
p253
S'Africa'
p254
sS'Substrate'
p255
S'Gravel'
p256
sS'Temperature'
p257
S'20-30 &#xB0;C'
p258
sS'dGH'
p259
S'0-18'
p260
sS'Photo URL'
p261
S'http://www.aqua-fish.net/imgs/plants/108.jpg'
p262
sS'Propagation'
p263
S'Rhizome'
p264
sS'Lighting'
p265
S'Subdued'
p266
sS'Growth speed'
p267
S'Slow'
p268
sS'ph'
p269
S'5.5-8'
p270
sS'Place in the aquarium'
p271
S'Middle'
p272
sS'Plant name'
p273
S"Anubias barteri &quot;Caladiifolia '1705'&quot;"
p274
sS'Size'
p275
S'7-30 cm'
p276
sa(dp277
S'Origin'
p278
S'Africa'
p279
sS'Substrate'
p280
S'Gravel'
p281
sS'Temperature'
p282
S'20-30 &#xB0;C'
p283
sS'dGH'
p284
S'0-18'
p285
sS'Photo URL'
p286
S'http://www.aqua-fish.net/imgs/plants/107.jpg'
p287
sS'Propagation'
p288
S'Rhizome'
p289
sS'Lighting'
p290
S'Subdued'
p291
sS'Growth speed'
p292
S'Slow'
p293
sS'ph'
p294
S'5.5-8'
p295
sS'Place in the aquarium'
p296
S'Foreground'
p297
sS'Plant name'
p298
S'Anubias barteri v. angustifolia'
p299
sS'Size'
p300
S'10-15 cm'
p301
sa(dp302
S'Origin'
p303
S'Cultivated form'
p304
sS'Substrate'
p305
S'Gravel'
p306
sS'Temperature'
p307
S'20-30 &#xB0;C'
p308
sS'dGH'
p309
S'0-30'
p310
sS'Photo URL'
p311
S'http://www.aqua-fish.net/imgs/plants/101.jpg'
p312
sS'Propagation'
p313
S'Rhizome'
p314
sS'Lighting'
p315
S'Subdued'
p316
sS'Growth speed'
p317
S'Slow'
p318
sS'ph'
p319
S'6.2-8.9'
p320
sS'Place in the aquarium'
p321
S'Middle'
p322
sS'Plant name'
p323
S'Anubias barteri \xe2\x80\x9cCoffeefolia\xe2\x80\x9d'
p324
sS'Size'
p325
S'15-25 cm'
p326
sa(dp327
S'Origin'
p328
S'Africa'
p329
sS'Substrate'
p330
S'Gravel'
p331
sS'Temperature'
p332
S'20-30 &#xB0;C'
p333
sS'dGH'
p334
S'4-12'
p335
sS'Photo URL'
p336
S'http://www.aqua-fish.net/imgs/plants/anubias-nana.jpg'
p337
sS'Propagation'
p338
S'Rhizome'
p339
sS'Lighting'
p340
S'Subdued'
p341
sS'Growth speed'
p342
S'Slow'
p343
sS'ph'
p344
S'5.5-8.9'
p345
sS'Place in the aquarium'
p346
S'Foreground'
p347
sS'Plant name'
p348
S'Anubias barteri \xe2\x80\x9cNana\xe2\x80\x9d'
p349
sS'Size'
p350
S'5-15 cm'
p351
sa(dp352
S'Origin'
p353
S'Africa'
p354
sS'Substrate'
p355
S'Fine gravel'
p356
sS'Temperature'
p357
S'20-30 &#xB0;C'
p358
sS'dGH'
p359
S'5-18'
p360
sS'Photo URL'
p361
S'http://www.aqua-fish.net/imgs/plants/anubias-gracilis.jpg'
p362
sS'Propagation'
p363
S'Rhizome'
p364
sS'Lighting'
p365
S'Medium'
p366
sS'Growth speed'
p367
S'Slow'
p368
sS'ph'
p369
S'5.6-8'
p370
sS'Place in the aquarium'
p371
S'Background'
p372
sS'Plant name'
p373
S'Anubias gracilis'
p374
sS'Size'
p375
S'20-60 cm'
p376
sa(dp377
S'Origin'
p378
S'Africa'
p379
sS'Substrate'
p380
S'Gravel'
p381
sS'Temperature'
p382
S'20-30 &#xB0;C'
p383
sS'dGH'
p384
S'0-18'
p385
sS'Photo URL'
p386
S'http://www.aqua-fish.net/imgs/plants/109.jpg'
p387
sS'Propagation'
p388
S'Rhizome'
p389
sS'Lighting'
p390
S'Subdued'
p391
sS'Growth speed'
p392
S'Slow'
p393
sS'ph'
p394
S'5.6-8'
p395
sS'Place in the aquarium'
p396
S'Background'
p397
sS'Plant name'
p398
S'Anubias heterophylla'
p399
sS'Size'
p400
S'25-60 cm'
p401
sa(dp402
S'Origin'
p403
S'Madagascar'
p404
sS'Substrate'
p405
S'Fine gravel'
p406
sS'Temperature'
p407
S'22-25 &#xB0;C'
p408
sS'dGH'
p409
S'4-18'
p410
sS'Photo URL'
p411
S'http://www.aqua-fish.net/imgs/na.jpg'
p412
sS'Propagation'
p413
S'Seeds'
p414
sS'Lighting'
p415
S'Bright'
p416
sS'Growth speed'
p417
S'Fast'
p418
sS'ph'
p419
S'6.5-7.3'
p420
sS'Place in the aquarium'
p421
S'Middle'
p422
sS'Plant name'
p423
S'Aponogeton bovianus bulb'
p424
sS'Size'
p425
S'30-60 cm'
p426
sa(dp427
S'Origin'
p428
S'Madagascar'
p429
sS'Substrate'
p430
S'Fine gravel'
p431
sS'Temperature'
p432
S'22-25 &#xB0;C'
p433
sS'dGH'
p434
S'4-18'
p435
sS'Photo URL'
p436
S'http://www.aqua-fish.net/imgs/na.jpg'
p437
sS'Propagation'
p438
S'Seeds'
p439
sS'Lighting'
p440
S'Bright'
p441
sS'Growth speed'
p442
S'Fast'
p443
sS'ph'
p444
S'6.8-7.7'
p445
sS'Place in the aquarium'
p446
S'Middle'
p447
sS'Plant name'
p448
S'Aponogeton bovianus medium'
p449
sS'Size'
p450
S'30-60 cm'
p451
sa(dp452
S'Origin'
p453
S'Sri Lanka'
p454
sS'Substrate'
p455
S'Fine gravel'
p456
sS'Temperature'
p457
S'23-28 &#xB0;C'
p458
sS'dGH'
p459
S'4-18'
p460
sS'Photo URL'
p461
S'http://www.aqua-fish.net/imgs/plants/008.jpg'
p462
sS'Propagation'
p463
S'Seeds'
p464
sS'Lighting'
p465
S'Subdued'
p466
sS'Growth speed'
p467
S'Fast'
p468
sS'ph'
p469
S'6.5-7.3'
p470
sS'Place in the aquarium'
p471
S'Middle'
p472
sS'Plant name'
p473
S'Aponogeton crispus bulb'
p474
sS'Size'
p475
S'25-50 cm'
p476
sa(dp477
S'Origin'
p478
S'Sri Lanka'
p479
sS'Substrate'
p480
S'Fine gravel'
p481
sS'Temperature'
p482
S'22-28 &#xB0;C'
p483
sS'dGH'
p484
S'4-18'
p485
sS'Photo URL'
p486
S'http://www.aqua-fish.net/imgs/plants/014.jpg'
p487
sS'Propagation'
p488
S'Seeds'
p489
sS'Lighting'
p490
S'Medium'
p491
sS'Growth speed'
p492
S'Fast'
p493
sS'ph'
p494
S'6.5-7.3'
p495
sS'Place in the aquarium'
p496
S'Middle'
p497
sS'Plant name'
p498
S'Aponogeton crispus large'
p499
sS'Size'
p500
S'25-50 cm'
p501
sa(dp502
S'Origin'
p503
S'Sri Lanka'
p504
sS'Substrate'
p505
S'Fine gravel'
p506
sS'Temperature'
p507
S'22-28 &#xB0;C'
p508
sS'dGH'
p509
S'4-18'
p510
sS'Photo URL'
p511
S'http://www.aqua-fish.net/imgs/plants/011.jpg'
p512
sS'Propagation'
p513
S'Seeds'
p514
sS'Lighting'
p515
S'Medium'
p516
sS'Growth speed'
p517
S'Fast'
p518
sS'ph'
p519
S'6.5-7.3'
p520
sS'Place in the aquarium'
p521
S'Background'
p522
sS'Plant name'
p523
S'Aponogeton crispus young'
p524
sS'Size'
p525
S'25-50 cm'
p526
sa(dp527
S'Origin'
p528
S'Madagascar'
p529
sS'Substrate'
p530
S'Sand'
p531
sS'Temperature'
p532
S'22-24 &#xB0;C'
p533
sS'dGH'
p534
S'4-12'
p535
sS'Photo URL'
p536
S'http://www.aqua-fish.net/imgs/plants/020.jpg'
p537
sS'Propagation'
p538
S'Seeds'
p539
sS'Lighting'
p540
S'Medium'
p541
sS'Growth speed'
p542
S'Fast'
p543
sS'ph'
p544
S'6.5-7.2'
p545
sS'Place in the aquarium'
p546
S'Middle'
p547
sS'Plant name'
p548
S'Aponogeton fenestralis bulb'
p549
sS'Size'
p550
S'25-50 cm'
p551
sa(dp552
S'Origin'
p553
S'Madagascar'
p554
sS'Substrate'
p555
S'Sand'
p556
sS'Temperature'
p557
S'22-24 &#xB0;C'
p558
sS'dGH'
p559
S'4-12'
p560
sS'Photo URL'
p561
S'http://www.aqua-fish.net/imgs/plants/021.jpg'
p562
sS'Propagation'
p563
S'Seeds'
p564
sS'Lighting'
p565
S'Medium'
p566
sS'Growth speed'
p567
S'Fast'
p568
sS'ph'
p569
S'6.5-7.2'
p570
sS'Place in the aquarium'
p571
S'Middle'
p572
sS'Plant name'
p573
S'Aponogeton fenestralis medium'
p574
sS'Size'
p575
S'25-50 cm'
p576
sa(dp577
S'Origin'
p578
S'Madagascar'
p579
sS'Substrate'
p580
S'Fine gravel'
p581
sS'Temperature'
p582
S'18-26 &#xB0;C'
p583
sS'dGH'
p584
S'0-12'
p585
sS'Photo URL'
p586
S'http://www.aqua-fish.net/imgs/plants/110.jpg'
p587
sS'Propagation'
p588
S'Seeds'
p589
sS'Lighting'
p590
S'Bright'
p591
sS'Growth speed'
p592
S'Normal'
p593
sS'ph'
p594
S'5.7-7.9'
p595
sS'Place in the aquarium'
p596
S'Background'
p597
sS'Plant name'
p598
S'Aponogeton longiplumulosus'
p599
sS'Size'
p600
S'35-60 cm'
p601
sa(dp602
S'Origin'
p603
S'Madagascar'
p604
sS'Substrate'
p605
S'Gravel'
p606
sS'Temperature'
p607
S'15-25 &#xB0;C'
p608
sS'dGH'
p609
S'0-4'
p610
sS'Photo URL'
p611
S'http://www.aqua-fish.net/imgs/plants/071.jpg'
p612
sS'Propagation'
p613
S'Seeds'
p614
sS'Lighting'
p615
S'Medium'
p616
sS'Growth speed'
p617
S'Normal'
p618
sS'ph'
p619
S'5.5-6.8'
p620
sS'Place in the aquarium'
p621
S'Background'
p622
sS'Plant name'
p623
S'Aponogeton madagascariensis'
p624
sS'Size'
p625
S'50-75 cm'
p626
sa(dp627
S'Origin'
p628
S'Sri Lanka'
p629
sS'Substrate'
p630
S'Fine gravel'
p631
sS'Temperature'
p632
S'22-28 &#xB0;C'
p633
sS'dGH'
p634
S'4-12'
p635
sS'Photo URL'
p636
S'http://www.aqua-fish.net/imgs/plants/009.jpg'
p637
sS'Propagation'
p638
S'Seeds'
p639
sS'Lighting'
p640
S'Subdued'
p641
sS'Growth speed'
p642
S'Fast'
p643
sS'ph'
p644
S'6-8'
p645
sS'Place in the aquarium'
p646
S'Middle'
p647
sS'Plant name'
p648
S'Aponogeton natans bulb'
p649
sS'Size'
p650
S'45-50 cm'
p651
sa(dp652
S'Origin'
p653
S'Sri Lanka'
p654
sS'Substrate'
p655
S'Fine gravel'
p656
sS'Temperature'
p657
S'22-28 &#xB0;C'
p658
sS'dGH'
p659
S'4-12'
p660
sS'Photo URL'
p661
S'http://www.aqua-fish.net/imgs/plants/015.jpg'
p662
sS'Propagation'
p663
S'Seeds'
p664
sS'Lighting'
p665
S'Medium'
p666
sS'Growth speed'
p667
S'Fast'
p668
sS'ph'
p669
S'6-8'
p670
sS'Place in the aquarium'
p671
S'Middle'
p672
sS'Plant name'
p673
S'Aponogeton natans large'
p674
sS'Size'
p675
S'45-50 cm'
p676
sa(dp677
S'Origin'
p678
S'Sri Lanka'
p679
sS'Substrate'
p680
S'Fine gravel'
p681
sS'Temperature'
p682
S'22-28 &#xB0;C'
p683
sS'dGH'
p684
S'4-12'
p685
sS'Photo URL'
p686
S'http://www.aqua-fish.net/imgs/plants/012.jpg'
p687
sS'Propagation'
p688
S'Seeds'
p689
sS'Lighting'
p690
S'Medium'
p691
sS'Growth speed'
p692
S'Fast'
p693
sS'ph'
p694
S'6-8'
p695
sS'Place in the aquarium'
p696
S'Background'
p697
sS'Plant name'
p698
S'Aponogeton natans young'
p699
sS'Size'
p700
S'45-50 cm'
p701
sa(dp702
S'Origin'
p703
S'Sri Lanka'
p704
sS'Substrate'
p705
S'Fine gravel'
p706
sS'Temperature'
p707
S'22-28 &#xB0;C'
p708
sS'dGH'
p709
S'4-18'
p710
sS'Photo URL'
p711
S'http://www.aqua-fish.net/imgs/plants/019.jpg'
p712
sS'Propagation'
p713
S'Rhizome'
p714
sS'Lighting'
p715
S'Medium'
p716
sS'Growth speed'
p717
S'Slow'
p718
sS'ph'
p719
S'6.5-7.4'
p720
sS'Place in the aquarium'
p721
S'Middle'
p722
sS'Plant name'
p723
S'Aponogeton rigidifolius young'
p724
sS'Size'
p725
S'30-60 cm'
p726
sa(dp727
S'Origin'
p728
S'Madagascar'
p729
sS'Substrate'
p730
S'Fine gravel'
p731
sS'Temperature'
p732
S'22-25 &#xB0;C'
p733
sS'dGH'
p734
S'4-12'
p735
sS'Photo URL'
p736
S'http://www.aqua-fish.net/imgs/plants/017.jpg'
p737
sS'Propagation'
p738
S'Bulb shoots'
p739
sS'Lighting'
p740
S'Medium'
p741
sS'Growth speed'
p742
S'Fast'
p743
sS'ph'
p744
S'6.8-7.7'
p745
sS'Place in the aquarium'
p746
S'Middle'
p747
sS'Plant name'
p748
S'Aponogeton ulvaceus bulb'
p749
sS'Size'
p750
S'30-50 cm'
p751
sa(dp752
S'Origin'
p753
S'Madagascar'
p754
sS'Substrate'
p755
S'Fine gravel'
p756
sS'Temperature'
p757
S'22-25 &#xB0;C'
p758
sS'dGH'
p759
S'4-12'
p760
sS'Photo URL'
p761
S'http://www.aqua-fish.net/imgs/plants/018.jpg'
p762
sS'Propagation'
p763
S'Bulb shoots'
p764
sS'Lighting'
p765
S'Medium'
p766
sS'Growth speed'
p767
S'Fast'
p768
sS'ph'
p769
S'6.8-7.7'
p770
sS'Place in the aquarium'
p771
S'Middle'
p772
sS'Plant name'
p773
S'Aponogeton ulvaceus medium'
p774
sS'Size'
p775
S'30-50 cm'
p776
sa(dp777
S'Origin'
p778
S'East Asia'
p779
sS'Substrate'
p780
S'Fine gravel'
p781
sS'Temperature'
p782
S'22-28 &#xB0;C'
p783
sS'dGH'
p784
S'4-12'
p785
sS'Photo URL'
p786
S'http://www.aqua-fish.net/imgs/plants/010.jpg'
p787
sS'Propagation'
p788
S'Seeds'
p789
sS'Lighting'
p790
S'Medium'
p791
sS'Growth speed'
p792
S'Normal'
p793
sS'ph'
p794
S'6-8'
p795
sS'Place in the aquarium'
p796
S'Background'
p797
sS'Plant name'
p798
S'Aponogeton undulatus bulb'
p799
sS'Size'
p800
S'50-60 cm'
p801
sa(dp802
S'Origin'
p803
S'East Asia'
p804
sS'Substrate'
p805
S'Fine gravel'
p806
sS'Temperature'
p807
S'22-28 &#xB0;C'
p808
sS'dGH'
p809
S'4-12'
p810
sS'Photo URL'
p811
S'http://www.aqua-fish.net/imgs/plants/016.jpg'
p812
sS'Propagation'
p813
S'Seeds'
p814
sS'Lighting'
p815
S'Medium'
p816
sS'Growth speed'
p817
S'Fast'
p818
sS'ph'
p819
S'6.8-7.2'
p820
sS'Place in the aquarium'
p821
S'Background'
p822
sS'Plant name'
p823
S'Aponogeton undulatus large'
p824
sS'Size'
p825
S'50-60 cm'
p826
sa(dp827
S'Origin'
p828
S'East Asia'
p829
sS'Substrate'
p830
S'Gravel'
p831
sS'Temperature'
p832
S'22-28 &#xB0;C'
p833
sS'dGH'
p834
S'4-12'
p835
sS'Photo URL'
p836
S'http://www.aqua-fish.net/imgs/plants/013.jpg'
p837
sS'Propagation'
p838
S'Seeds'
p839
sS'Lighting'
p840
S'Medium'
p841
sS'Growth speed'
p842
S'Fast'
p843
sS'ph'
p844
S'6-8'
p845
sS'Place in the aquarium'
p846
S'Middle'
p847
sS'Plant name'
p848
S'Aponogeton undulatus young'
p849
sS'Size'
p850
S'50-60 cm'
p851
sa(dp852
S'Origin'
p853
S'North America'
p854
sS'Substrate'
p855
S'Fine gravel'
p856
sS'Temperature'
p857
S'18-25 &#xB0;C'
p858
sS'dGH'
p859
S'12-18'
p860
sS'Photo URL'
p861
S'http://www.aqua-fish.net/imgs/plants/072.jpg'
p862
sS'Propagation'
p863
S'Cuttings'
p864
sS'Lighting'
p865
S'Bright'
p866
sS'Growth speed'
p867
S'Normal'
p868
sS'ph'
p869
S'5.5-7.2'
p870
sS'Place in the aquarium'
p871
S'Foreground'
p872
sS'Plant name'
p873
S'Armoracia aquatica'
p874
sS'Size'
p875
S'0-8 cm'
p876
sa(dp877
S'Origin'
p878
S'North America'
p879
sS'Substrate'
p880
S'Without substrate'
p881
sS'Temperature'
p882
S'15-27 &#xB0;C'
p883
sS'dGH'
p884
S'0-18'
p885
sS'Photo URL'
p886
S'http://www.aqua-fish.net/imgs/plants/106.jpg'
p887
sS'Propagation'
p888
S'Runners'
p889
sS'Lighting'
p890
S'Bright'
p891
sS'Growth speed'
p892
S'Normal'
p893
sS'ph'
p894
S'6.3-8'
p895
sS'Place in the aquarium'
p896
S'Floating'
p897
sS'Plant name'
p898
S'Azolla caroliniana'
p899
sS'Size'
p900
S'0-2 cm'
p901
sa(dp902
S'Origin'
p903
S'South America'
p904
sS'Substrate'
p905
S'Gravel'
p906
sS'Temperature'
p907
S'20-29 &#xB0;C'
p908
sS'dGH'
p909
S'0-30'
p910
sS'Photo URL'
p911
S'http://www.aqua-fish.net/imgs/na.jpg'
p912
sS'Propagation'
p913
S'Lateral shoots'
p914
sS'Lighting'
p915
S'Medium'
p916
sS'Growth speed'
p917
S'Fast'
p918
sS'ph'
p919
S'6.2-7.9'
p920
sS'Place in the aquarium'
p921
S'Background'
p922
sS'Plant name'
p923
S'Bacopa australis'
p924
sS'Size'
p925
S'6-30 cm'
p926
sa(dp927
S'Origin'
p928
S'North America'
p929
sS'Substrate'
p930
S'Fine gravel'
p931
sS'Temperature'
p932
S'21-27 &#xB0;C'
p933
sS'dGH'
p934
S'4-8'
p935
sS'Photo URL'
p936
S'http://www.aqua-fish.net/imgs/plants/053.jpg'
p937
sS'Propagation'
p938
S'Lateral shoots'
p939
sS'Lighting'
p940
S'Bright'
p941
sS'Growth speed'
p942
S'Normal'
p943
sS'ph'
p944
S'6.8-7.2'
p945
sS'Place in the aquarium'
p946
S'Background'
p947
sS'Plant name'
p948
S'Bacopa caroliniana'
p949
sS'Size'
p950
S'20-30 cm'
p951
sa(dp952
S'Origin'
p953
S'Everywhere'
p954
sS'Substrate'
p955
S'Fine gravel'
p956
sS'Temperature'
p957
S'20-27 &#xB0;C'
p958
sS'dGH'
p959
S'8-30'
p960
sS'Photo URL'
p961
S'http://www.aqua-fish.net/imgs/plants/111.jpg'
p962
sS'Propagation'
p963
S'Lateral shoots'
p964
sS'Lighting'
p965
S'Bright'
p966
sS'Growth speed'
p967
S'Slow'
p968
sS'ph'
p969
S'6.3-8.8'
p970
sS'Place in the aquarium'
p971
S'Background'
p972
sS'Plant name'
p973
S'Bacopa monnieri'
p974
sS'Size'
p975
S'25-50 cm'
p976
sa(dp977
S'Origin'
p978
S'South Asia'
p979
sS'Substrate'
p980
S'Fine gravel'
p981
sS'Temperature'
p982
S'23-28 &#xB0;C'
p983
sS'dGH'
p984
S'4-18'
p985
sS'Photo URL'
p986
S'http://www.aqua-fish.net/imgs/plants/065.jpg'
p987
sS'Propagation'
p988
S'Rhizome'
p989
sS'Lighting'
p990
S'Medium'
p991
sS'Growth speed'
p992
S'Normal'
p993
sS'ph'
p994
S'6.3-7.2'
p995
sS'Place in the aquarium'
p996
S'Middle'
p997
sS'Plant name'
p998
S'Barclaya longifolia'
p999
sS'Size'
p1000
S'30-80 cm'
p1001
sa(dp1002
S'Origin'
p1003
S'South Asia'
p1004
sS'Substrate'
p1005
S'Fine gravel'
p1006
sS'Temperature'
p1007
S'23-28 &#xB0;C'
p1008
sS'dGH'
p1009
S'0-10'
p1010
sS'Photo URL'
p1011
S'http://www.aqua-fish.net/imgs/plants/blyxa-aubertii.jpg'
p1012
sS'Propagation'
p1013
S'Cuttings'
p1014
sS'Lighting'
p1015
S'Bright'
p1016
sS'Growth speed'
p1017
S'Normal'
p1018
sS'ph'
p1019
S'5-7'
p1020
sS'Place in the aquarium'
p1021
S'Middle'
p1022
sS'Plant name'
p1023
S'Blyxa aubertii'
p1024
sS'Size'
p1025
S'10-25 cm'
p1026
sa(dp1027
S'Origin'
p1028
S'East Asia'
p1029
sS'Substrate'
p1030
S'Fine gravel'
p1031
sS'Temperature'
p1032
S'23-27 &#xB0;C'
p1033
sS'dGH'
p1034
S'2-12'
p1035
sS'Photo URL'
p1036
S'http://www.aqua-fish.net/imgs/plants/blyxa-japonica.jpg'
p1037
sS'Propagation'
p1038
S'Lateral shoots'
p1039
sS'Lighting'
p1040
S'Bright'
p1041
sS'Growth speed'
p1042
S'Normal'
p1043
sS'ph'
p1044
S'5-7'
p1045
sS'Place in the aquarium'
p1046
S'Middle'
p1047
sS'Plant name'
p1048
S'Blyxa japonica'
p1049
sS'Size'
p1050
S'5-15 cm'
p1051
sa(dp1052
S'Origin'
p1053
S'Africa'
p1054
sS'Substrate'
p1055
S'Rocky'
p1056
sS'Temperature'
p1057
S'22-26 &#xB0;C'
p1058
sS'dGH'
p1059
S'4-12'
p1060
sS'Photo URL'
p1061
S'http://www.aqua-fish.net/imgs/plants/bolbitis-heudelotii-profile.jpg'
p1062
sS'Propagation'
p1063
S'Rhizome'
p1064
sS'Lighting'
p1065
S'Subdued'
p1066
sS'Growth speed'
p1067
S'Slow'
p1068
sS'ph'
p1069
S'6.3-7.2'
p1070
sS'Place in the aquarium'
p1071
S'Middle'
p1072
sS'Plant name'
p1073
S'Bolbitis heudelotii'
p1074
sS'Size'
p1075
S'15-30 cm'
p1076
sa(dp1077
S'Origin'
p1078
S'Central America'
p1079
sS'Substrate'
p1080
S'Rocky'
p1081
sS'Temperature'
p1082
S'22-26 &#xB0;C'
p1083
sS'dGH'
p1084
S'4-12'
p1085
sS'Photo URL'
p1086
S'http://www.aqua-fish.net/imgs/plants/cabomba-caroliniana-profile.jpg'
p1087
sS'Propagation'
p1088
S'Cuttings'
p1089
sS'Lighting'
p1090
S'Bright'
p1091
sS'Growth speed'
p1092
S'Fast'
p1093
sS'ph'
p1094
S'6.5-7.2'
p1095
sS'Place in the aquarium'
p1096
S'Background'
p1097
sS'Plant name'
p1098
S'Cabomba caroliniana'
p1099
sS'Size'
p1100
S'50-100 cm'
p1101
sa(dp1102
S'Origin'
p1103
S'South America'
p1104
sS'Substrate'
p1105
S'Gravel'
p1106
sS'Temperature'
p1107
S'22-30 &#xB0;C'
p1108
sS'dGH'
p1109
S'0-12'
p1110
sS'Photo URL'
p1111
S'http://www.aqua-fish.net/imgs/plants/112.jpg'
p1112
sS'Propagation'
p1113
S'Cuttings'
p1114
sS'Lighting'
p1115
S'Bright'
p1116
sS'Growth speed'
p1117
S'Fast'
p1118
sS'ph'
p1119
S'4.1-7'
p1120
sS'Place in the aquarium'
p1121
S'Background'
p1122
sS'Plant name'
p1123
S'Cabomba furcata'
p1124
sS'Size'
p1125
S'30-90 cm'
p1126
sa(dp1127
S'Origin'
p1128
S'East Asia'
p1129
sS'Substrate'
p1130
S'Gravel'
p1131
sS'Temperature'
p1132
S'15-24 &#xB0;C'
p1133
sS'dGH'
p1134
S'4-18'
p1135
sS'Photo URL'
p1136
S'http://www.aqua-fish.net/imgs/plants/073.jpg'
p1137
sS'Propagation'
p1138
S'Cuttings'
p1139
sS'Lighting'
p1140
S'Bright'
p1141
sS'Growth speed'
p1142
S'Normal'
p1143
sS'ph'
p1144
S'6-8'
p1145
sS'Place in the aquarium'
p1146
S'Background'
p1147
sS'Plant name'
p1148
S'Cardamine lyrata'
p1149
sS'Size'
p1150
S'20-30 cm'
p1151
sa(dp1152
S'Origin'
p1153
S'Everywhere'
p1154
sS'Substrate'
p1155
S'Sand'
p1156
sS'Temperature'
p1157
S'21-28 &#xB0;C'
p1158
sS'dGH'
p1159
S'4-18'
p1160
sS'Photo URL'
p1161
S'http://www.aqua-fish.net/imgs/plants/ceratophyllum-demersum.jpg'
p1162
sS'Propagation'
p1163
S'Cuttings'
p1164
sS'Lighting'
p1165
S'Bright'
p1166
sS'Growth speed'
p1167
S'Fast'
p1168
sS'ph'
p1169
S'6.2-7.5'
p1170
sS'Place in the aquarium'
p1171
S'Background'
p1172
sS'Plant name'
p1173
S'Ceratophyllum demersum'
p1174
sS'Size'
p1175
S'10-80 cm'
p1176
sa(dp1177
S'Origin'
p1178
S'South Asia'
p1179
sS'Substrate'
p1180
S'Fine gravel'
p1181
sS'Temperature'
p1182
S'17-28 &#xB0;C'
p1183
sS'dGH'
p1184
S'4-18'
p1185
sS'Photo URL'
p1186
S'http://www.aqua-fish.net/imgs/plants/113.jpg'
p1187
sS'Propagation'
p1188
S'Rhizome'
p1189
sS'Lighting'
p1190
S'Bright'
p1191
sS'Growth speed'
p1192
S'Fast'
p1193
sS'ph'
p1194
S'5.4-8'
p1195
sS'Place in the aquarium'
p1196
S'Background'
p1197
sS'Plant name'
p1198
S'Ceratopteris cornuta'
p1199
sS'Size'
p1200
S'20-50 cm'
p1201
sa(dp1202
S'Origin'
p1203
S'South Asia'
p1204
sS'Substrate'
p1205
S'Fine gravel'
p1206
sS'Temperature'
p1207
S'20-25 &#xB0;C'
p1208
sS'dGH'
p1209
S'4-8'
p1210
sS'Photo URL'
p1211
S'http://www.aqua-fish.net/imgs/plants/ceratopteris-thalictroides.jpg'
p1212
sS'Propagation'
p1213
S'Rhizome'
p1214
sS'Lighting'
p1215
S'Bright'
p1216
sS'Growth speed'
p1217
S'Normal'
p1218
sS'ph'
p1219
S'5-6.5'
p1220
sS'Place in the aquarium'
p1221
S'Middle'
p1222
sS'Plant name'
p1223
S'Ceratopteris thalictroides'
p1224
sS'Size'
p1225
S'20-40 cm'
p1226
sa(dp1227
S'Origin'
p1228
S'Europe'
p1229
sS'Substrate'
p1230
S'Rocky'
p1231
sS'Temperature'
p1232
S'15-27 &#xB0;C'
p1233
sS'dGH'
p1234
S'12-30'
p1235
sS'Photo URL'
p1236
S'http://www.aqua-fish.net/imgs/plants/114.jpg'
p1237
sS'Propagation'
p1238
S'Divisions'
p1239
sS'Lighting'
p1240
S'Medium'
p1241
sS'Growth speed'
p1242
S'Slow'
p1243
sS'ph'
p1244
S'6.2-8'
p1245
sS'Place in the aquarium'
p1246
S'Middle'
p1247
sS'Plant name'
p1248
S'Cladophora aegagropila'
p1249
sS'Size'
p1250
S'2-10 cm'
p1251
sa(dp1252
S'Origin'
p1253
S'Africa'
p1254
sS'Substrate'
p1255
S'Fine gravel'
p1256
sS'Temperature'
p1257
S'20-27 &#xB0;C'
p1258
sS'dGH'
p1259
S'0-18'
p1260
sS'Photo URL'
p1261
S'http://www.aqua-fish.net/imgs/plants/115.jpg'
p1262
sS'Propagation'
p1263
S'Bulb shoots'
p1264
sS'Lighting'
p1265
S'Bright'
p1266
sS'Growth speed'
p1267
S'Slow'
p1268
sS'ph'
p1269
S'6.1-7.8'
p1270
sS'Place in the aquarium'
p1271
S'Background'
p1272
sS'Plant name'
p1273
S'Crinum calamistratum'
p1274
sS'Size'
p1275
S'40-120 cm'
p1276
sa(dp1277
S'Origin'
p1278
S'Africa'
p1279
sS'Substrate'
p1280
S'Fine gravel'
p1281
sS'Temperature'
p1282
S'15-25 &#xB0;C'
p1283
sS'dGH'
p1284
S'0-12'
p1285
sS'Photo URL'
p1286
S'http://www.aqua-fish.net/imgs/plants/075.jpg'
p1287
sS'Propagation'
p1288
S'Bulb shoots'
p1289
sS'Lighting'
p1290
S'Bright'
p1291
sS'Growth speed'
p1292
S'Slow'
p1293
sS'ph'
p1294
S'5.5-7'
p1295
sS'Place in the aquarium'
p1296
S'Background'
p1297
sS'Plant name'
p1298
S'Crinum natans'
p1299
sS'Size'
p1300
S'50-100 cm'
p1301
sa(dp1302
S'Origin'
p1303
S'South Asia'
p1304
sS'Substrate'
p1305
S'Gravel'
p1306
sS'Temperature'
p1307
S'24-28 &#xB0;C'
p1308
sS'dGH'
p1309
S'4-18'
p1310
sS'Photo URL'
p1311
S'http://www.aqua-fish.net/imgs/plants/022.jpg'
p1312
sS'Propagation'
p1313
S'Bulb shoots'
p1314
sS'Lighting'
p1315
S'Medium'
p1316
sS'Growth speed'
p1317
S'Normal'
p1318
sS'ph'
p1319
S'6.8-7.5'
p1320
sS'Place in the aquarium'
p1321
S'Background'
p1322
sS'Plant name'
p1323
S'Crinum thaianum'
p1324
sS'Size'
p1325
S'60-200 cm'
p1326
sa(dp1327
S'Origin'
p1328
S'South Asia'
p1329
sS'Substrate'
p1330
S'Gravel'
p1331
sS'Temperature'
p1332
S'22-26 &#xB0;C'
p1333
sS'dGH'
p1334
S'4-18'
p1335
sS'Photo URL'
p1336
S'http://www.aqua-fish.net/imgs/plants/076.jpg'
p1337
sS'Propagation'
p1338
S'Runners'
p1339
sS'Lighting'
p1340
S'Medium'
p1341
sS'Growth speed'
p1342
S'Normal'
p1343
sS'ph'
p1344
S'6.8-7'
p1345
sS'Place in the aquarium'
p1346
S'Middle'
p1347
sS'Plant name'
p1348
S'Cryptocoryne affinis'
p1349
sS'Size'
p1350
S'15-30 cm'
p1351
sa(dp1352
S'Origin'
p1353
S'East Asia'
p1354
sS'Substrate'
p1355
S'Gravel'
p1356
sS'Temperature'
p1357
S'21-28 &#xB0;C'
p1358
sS'dGH'
p1359
S'4-18'
p1360
sS'Photo URL'
p1361
S'http://www.aqua-fish.net/imgs/plants/116.jpg'
p1362
sS'Propagation'
p1363
S'Runners'
p1364
sS'Lighting'
p1365
S'Bright'
p1366
sS'Growth speed'
p1367
S'Normal'
p1368
sS'ph'
p1369
S'6.3-7.8'
p1370
sS'Place in the aquarium'
p1371
S'Middle'
p1372
sS'Plant name'
p1373
S'Cryptocoryne albida'
p1374
sS'Size'
p1375
S'10-30 cm'
p1376
sa(dp1377
S'Origin'
p1378
S'East Asia'
p1379
sS'Substrate'
p1380
S'Rocky'
p1381
sS'Temperature'
p1382
S'24-28 &#xB0;C'
p1383
sS'dGH'
p1384
S'4-8'
p1385
sS'Photo URL'
p1386
S'http://www.aqua-fish.net/imgs/plants/045.jpg'
p1387
sS'Propagation'
p1388
S'Runners'
p1389
sS'Lighting'
p1390
S'Medium'
p1391
sS'Growth speed'
p1392
S'Normal'
p1393
sS'ph'
p1394
S'6.8-7.5'
p1395
sS'Place in the aquarium'
p1396
S'Middle'
p1397
sS'Plant name'
p1398
S'Cryptocoryne balansae'
p1399
sS'Size'
p1400
S'30-55 cm'
p1401
sa(dp1402
S'Origin'
p1403
S'Sri Lanka'
p1404
sS'Substrate'
p1405
S'Gravel'
p1406
sS'Temperature'
p1407
S'23-28 &#xB0;C'
p1408
sS'dGH'
p1409
S'4-18'
p1410
sS'Photo URL'
p1411
S'http://www.aqua-fish.net/imgs/plants/042.jpg'
p1412
sS'Propagation'
p1413
S'Runners'
p1414
sS'Lighting'
p1415
S'Medium'
p1416
sS'Growth speed'
p1417
S'Normal'
p1418
sS'ph'
p1419
S'6.8-7.5'
p1420
sS'Place in the aquarium'
p1421
S'Middle'
p1422
sS'Plant name'
p1423
S'Cryptocoryne becketti'
p1424
sS'Size'
p1425
S'15-20 cm'
p1426
sa(dp1427
S'Origin'
p1428
S'East Asia'
p1429
sS'Substrate'
p1430
S'Fine gravel'
p1431
sS'Temperature'
p1432
S'22-28 &#xB0;C'
p1433
sS'dGH'
p1434
S'4-18'
p1435
sS'Photo URL'
p1436
S'http://www.aqua-fish.net/imgs/plants/044.jpg'
p1437
sS'Propagation'
p1438
S'Runners'
p1439
sS'Lighting'
p1440
S'Medium'
p1441
sS'Growth speed'
p1442
S'Normal'
p1443
sS'ph'
p1444
S'6.6-7.5'
p1445
sS'Place in the aquarium'
p1446
S'Middle'
p1447
sS'Plant name'
p1448
S'Cryptocoryne blassi'
p1449
sS'Size'
p1450
S'35-45 cm'
p1451
sa(dp1452
S'Origin'
p1453
S'East Asia'
p1454
sS'Substrate'
p1455
S'Fine gravel'
p1456
sS'Temperature'
p1457
S'23-28 &#xB0;C'
p1458
sS'dGH'
p1459
S'4-18'
p1460
sS'Photo URL'
p1461
S'http://www.aqua-fish.net/imgs/plants/046.jpg'
p1462
sS'Propagation'
p1463
S'Runners'
p1464
sS'Lighting'
p1465
S'Bright'
p1466
sS'Growth speed'
p1467
S'Slow'
p1468
sS'ph'
p1469
S'6.8-7.8'
p1470
sS'Place in the aquarium'
p1471
S'Middle'
p1472
sS'Plant name'
p1473
S'Cryptocoryne ciliata'
p1474
sS'Size'
p1475
S'40-50 cm'
p1476
sa(dp1477
S'Origin'
p1478
S'Sri Lanka'
p1479
sS'Substrate'
p1480
S'Gravel'
p1481
sS'Temperature'
p1482
S'20-26 &#xB0;C'
p1483
sS'dGH'
p1484
S'4-12'
p1485
sS'Photo URL'
p1486
S'http://www.aqua-fish.net/imgs/plants/077.jpg'
p1487
sS'Propagation'
p1488
S'Runners'
p1489
sS'Lighting'
p1490
S'Medium'
p1491
sS'Growth speed'
p1492
S'Slow'
p1493
sS'ph'
p1494
S'6.8-7.2'
p1495
sS'Place in the aquarium'
p1496
S'Foreground'
p1497
sS'Plant name'
p1498
S'Cryptocoryne cordata'
p1499
sS'Size'
p1500
S'5-20 cm'
p1501
sa(dp1502
S'Origin'
p1503
S'Sri Lanka'
p1504
sS'Substrate'
p1505
S'Fine gravel'
p1506
sS'Temperature'
p1507
S'22-28 &#xB0;C'
p1508
sS'dGH'
p1509
S'4-18'
p1510
sS'Photo URL'
p1511
S'http://www.aqua-fish.net/imgs/plants/043.jpg'
p1512
sS'Propagation'
p1513
S'Runners'
p1514
sS'Lighting'
p1515
S'Medium'
p1516
sS'Growth speed'
p1517
S'Normal'
p1518
sS'ph'
p1519
S'6.6-7.5'
p1520
sS'Place in the aquarium'
p1521
S'Middle'
p1522
sS'Plant name'
p1523
S'Cryptocoryne lutea'
p1524
sS'Size'
p1525
S'10-15 cm'
p1526
sa(dp1527
S'Origin'
p1528
S'Sri Lanka'
p1529
sS'Substrate'
p1530
S'Fine gravel'
p1531
sS'Temperature'
p1532
S'20-25 &#xB0;C'
p1533
sS'dGH'
p1534
S'4-12'
p1535
sS'Photo URL'
p1536
S'http://www.aqua-fish.net/imgs/plants/078.jpg'
p1537
sS'Propagation'
p1538
S'Runners'
p1539
sS'Lighting'
p1540
S'Bright'
p1541
sS'Growth speed'
p1542
S'Slow'
p1543
sS'ph'
p1544
S'6.3-7.4'
p1545
sS'Place in the aquarium'
p1546
S'Foreground'
p1547
sS'Plant name'
p1548
S'Cryptocoryne nevillii'
p1549
sS'Size'
p1550
S'0-10 cm'
p1551
sa(dp1552
S'Origin'
p1553
S'Sri Lanka'
p1554
sS'Substrate'
p1555
S'Gravel'
p1556
sS'Temperature'
p1557
S'22-26 &#xB0;C'
p1558
sS'dGH'
p1559
S'4-18'
p1560
sS'Photo URL'
p1561
S'http://www.aqua-fish.net/imgs/plants/041.jpg'
p1562
sS'Propagation'
p1563
S'Runners'
p1564
sS'Lighting'
p1565
S'Medium'
p1566
sS'Growth speed'
p1567
S'Slow'
p1568
sS'ph'
p1569
S'6.6-7.5'
p1570
sS'Place in the aquarium'
p1571
S'Middle'
p1572
sS'Plant name'
p1573
S'Cryptocoryne petchii'
p1574
sS'Size'
p1575
S'10-15 cm'
p1576
sa(dp1577
S'Origin'
p1578
S'Oceania'
p1579
sS'Substrate'
p1580
S'Fine gravel'
p1581
sS'Temperature'
p1582
S'22-28 &#xB0;C'
p1583
sS'dGH'
p1584
S'4-18'
p1585
sS'Photo URL'
p1586
S'http://www.aqua-fish.net/imgs/plants/079.jpg'
p1587
sS'Propagation'
p1588
S'Runners'
p1589
sS'Lighting'
p1590
S'Medium'
p1591
sS'Growth speed'
p1592
S'Slow'
p1593
sS'ph'
p1594
S'6-7.2'
p1595
sS'Place in the aquarium'
p1596
S'Middle'
p1597
sS'Plant name'
p1598
S'Cryptocoryne pontederiifolia'
p1599
sS'Size'
p1600
S'20-35 cm'
p1601
sa(dp1602
S'Origin'
p1603
S'Sri Lanka'
p1604
sS'Substrate'
p1605
S'Rocky'
p1606
sS'Temperature'
p1607
S'23-27 &#xB0;C'
p1608
sS'dGH'
p1609
S'4-12'
p1610
sS'Photo URL'
p1611
S'http://www.aqua-fish.net/imgs/plants/040.jpg'
p1612
sS'Propagation'
p1613
S'Runners'
p1614
sS'Lighting'
p1615
S'Medium'
p1616
sS'Growth speed'
p1617
S'Normal'
p1618
sS'ph'
p1619
S'6.8-7.2'
p1620
sS'Place in the aquarium'
p1621
S'Middle'
p1622
sS'Plant name'
p1623
S'Cryptocoryne wendtii'
p1624
sS'Size'
p1625
S'5-10 cm'
p1626
sa(dp1627
S'Origin'
p1628
S'Sri Lanka'
p1629
sS'Substrate'
p1630
S'Fine gravel'
p1631
sS'Temperature'
p1632
S'22-27 &#xB0;C'
p1633
sS'dGH'
p1634
S'4-18'
p1635
sS'Photo URL'
p1636
S'http://www.aqua-fish.net/imgs/plants/039.jpg'
p1637
sS'Propagation'
p1638
S'Runners'
p1639
sS'Lighting'
p1640
S'Medium'
p1641
sS'Growth speed'
p1642
S'Fast'
p1643
sS'ph'
p1644
S'6.5-7.2'
p1645
sS'Place in the aquarium'
p1646
S'Foreground'
p1647
sS'Plant name'
p1648
S'Cryptocoryne willisii'
p1649
sS'Size'
p1650
S'7-20 cm'
p1651
sa(dp1652
S'Origin'
p1653
S'Madagascar'
p1654
sS'Substrate'
p1655
S'Gravel'
p1656
sS'Temperature'
p1657
S'17-28 &#xB0;C'
p1658
sS'dGH'
p1659
S'4-18'
p1660
sS'Photo URL'
p1661
S'http://www.aqua-fish.net/imgs/plants/118.jpg'
p1662
sS'Propagation'
p1663
S'Cuttings'
p1664
sS'Lighting'
p1665
S'Bright'
p1666
sS'Growth speed'
p1667
S'Normal'
p1668
sS'ph'
p1669
S'5.2-8.8'
p1670
sS'Place in the aquarium'
p1671
S'Background'
p1672
sS'Plant name'
p1673
S'Cyperus alternifolius'
p1674
sS'Size'
p1675
S'50-100 cm'
p1676
sa(dp1677
S'Origin'
p1678
S'South Asia'
p1679
sS'Substrate'
p1680
S'Fine gravel'
p1681
sS'Temperature'
p1682
S'20-30 &#xB0;C'
p1683
sS'dGH'
p1684
S'0-18'
p1685
sS'Photo URL'
p1686
S'http://www.aqua-fish.net/imgs/plants/119.jpg'
p1687
sS'Propagation'
p1688
S'Divisions'
p1689
sS'Lighting'
p1690
S'Bright'
p1691
sS'Growth speed'
p1692
S'Slow'
p1693
sS'ph'
p1694
S'5.5-7.5'
p1695
sS'Place in the aquarium'
p1696
S'Middle'
p1697
sS'Plant name'
p1698
S'Cyperus helferi'
p1699
sS'Size'
p1700
S'20-35 cm'
p1701
sa(dp1702
S'Origin'
p1703
S'North America'
p1704
sS'Substrate'
p1705
S'Fine gravel'
p1706
sS'Temperature'
p1707
S'22-28 &#xB0;C'
p1708
sS'dGH'
p1709
S'4-12'
p1710
sS'Photo URL'
p1711
S'http://www.aqua-fish.net/imgs/plants/055.jpg'
p1712
sS'Propagation'
p1713
S'Cuttings'
p1714
sS'Lighting'
p1715
S'Bright'
p1716
sS'Growth speed'
p1717
S'Normal'
p1718
sS'ph'
p1719
S'6-7.2'
p1720
sS'Place in the aquarium'
p1721
S'Middle'
p1722
sS'Plant name'
p1723
S'Didiplis diandra'
p1724
sS'Size'
p1725
S'10-15 cm'
p1726
sa(dp1727
S'Origin'
p1728
S'South America'
p1729
sS'Substrate'
p1730
S'Fine gravel'
p1731
sS'Temperature'
p1732
S'22-30 &#xB0;C'
p1733
sS'dGH'
p1734
S'4-18'
p1735
sS'Photo URL'
p1736
S'http://www.aqua-fish.net/imgs/plants/echinodorus-amazonicus-profile.jpg'
p1737
sS'Propagation'
p1738
S'Runners'
p1739
sS'Lighting'
p1740
S'Medium'
p1741
sS'Growth speed'
p1742
S'Slow'
p1743
sS'ph'
p1744
S'6.5-7.2'
p1745
sS'Place in the aquarium'
p1746
S'Middle'
p1747
sS'Plant name'
p1748
S'Echinodorus amazonicus'
p1749
sS'Size'
p1750
S'30-50 cm'
p1751
sa(dp1752
S'Origin'
p1753
S'South America'
p1754
sS'Substrate'
p1755
S'Gravel'
p1756
sS'Temperature'
p1757
S'21-30 &#xB0;C'
p1758
sS'dGH'
p1759
S'4-18'
p1760
sS'Photo URL'
p1761
S'http://www.aqua-fish.net/imgs/plants/123.jpg'
p1762
sS'Propagation'
p1763
S'Runners'
p1764
sS'Lighting'
p1765
S'Medium'
p1766
sS'Growth speed'
p1767
S'Normal'
p1768
sS'ph'
p1769
S'5.7-7.4'
p1770
sS'Place in the aquarium'
p1771
S'Middle'
p1772
sS'Plant name'
p1773
S'Echinodorus angustifolius'
p1774
sS'Size'
p1775
S'5-30 cm'
p1776
sa(dp1777
S'Origin'
p1778
S'South America'
p1779
sS'Substrate'
p1780
S'Fine gravel'
p1781
sS'Temperature'
p1782
S'22-30 &#xB0;C'
p1783
sS'dGH'
p1784
S'4-18'
p1785
sS'Photo URL'
p1786
S'http://www.aqua-fish.net/imgs/plants/echinodorus-bleheri.jpg'
p1787
sS'Propagation'
p1788
S'Rhizome'
p1789
sS'Lighting'
p1790
S'Medium'
p1791
sS'Growth speed'
p1792
S'Fast'
p1793
sS'ph'
p1794
S'6.5-7.5'
p1795
sS'Place in the aquarium'
p1796
S'Middle'
p1797
sS'Plant name'
p1798
S'Echinodorus bleheri'
p1799
sS'Size'
p1800
S'20-50 cm'
p1801
sa(dp1802
S'Origin'
p1803
S'North America'
p1804
sS'Substrate'
p1805
S'Sand'
p1806
sS'Temperature'
p1807
S'22-28 &#xB0;C'
p1808
sS'dGH'
p1809
S'4-12'
p1810
sS'Photo URL'
p1811
S'http://www.aqua-fish.net/imgs/plants/echinodorus-cordifolius-profile.jpg'
p1812
sS'Propagation'
p1813
S'Divisions'
p1814
sS'Lighting'
p1815
S'Bright'
p1816
sS'Growth speed'
p1817
S'Normal'
p1818
sS'ph'
p1819
S'6.2-7.1'
p1820
sS'Place in the aquarium'
p1821
S'Middle'
p1822
sS'Plant name'
p1823
S'Echinodorus cordifolius'
p1824
sS'Size'
p1825
S'35-55 cm'
p1826
sa(dp1827
S'Origin'
p1828
S'South America'
p1829
sS'Substrate'
p1830
S'Gravel'
p1831
sS'Temperature'
p1832
S'21-28 &#xB0;C'
p1833
sS'dGH'
p1834
S'4-8'
p1835
sS'Photo URL'
p1836
S'http://www.aqua-fish.net/imgs/plants/124.jpg'
p1837
sS'Propagation'
p1838
S'Rhizome'
p1839
sS'Lighting'
p1840
S'Bright'
p1841
sS'Growth speed'
p1842
S'Normal'
p1843
sS'ph'
p1844
S'5.7-8.9'
p1845
sS'Place in the aquarium'
p1846
S'Background'
p1847
sS'Plant name'
p1848
S'Echinodorus grandiflorus'
p1849
sS'Size'
p1850
S'50-150 cm'
p1851
sa(dp1852
S'Origin'
p1853
S'South America'
p1854
sS'Substrate'
p1855
S'Sand'
p1856
sS'Temperature'
p1857
S'18-26 &#xB0;C'
p1858
sS'dGH'
p1859
S'4-18'
p1860
sS'Photo URL'
p1861
S'http://www.aqua-fish.net/imgs/plants/081.jpg'
p1862
sS'Propagation'
p1863
S'Rhizome'
p1864
sS'Lighting'
p1865
S'Medium'
p1866
sS'Growth speed'
p1867
S'Slow'
p1868
sS'ph'
p1869
S'6.5-7.5'
p1870
sS'Place in the aquarium'
p1871
S'Background'
p1872
sS'Plant name'
p1873
S'Echinodorus horemanii'
p1874
sS'Size'
p1875
S'40-60 cm'
p1876
sa(dp1877
S'Origin'
p1878
S'South America'
p1879
sS'Substrate'
p1880
S'Fine gravel'
p1881
sS'Temperature'
p1882
S'22-27 &#xB0;C'
p1883
sS'dGH'
p1884
S'4-12'
p1885
sS'Photo URL'
p1886
S'http://www.aqua-fish.net/imgs/plants/038.jpg'
p1887
sS'Propagation'
p1888
S'Runners'
p1889
sS'Lighting'
p1890
S'Bright'
p1891
sS'Growth speed'
p1892
S'Fast'
p1893
sS'ph'
p1894
S'6.5-7.4'
p1895
sS'Place in the aquarium'
p1896
S'Foreground'
p1897
sS'Plant name'
p1898
S'Echinodorus latifolius'
p1899
sS'Size'
p1900
S'10-15 cm'
p1901
sa(dp1902
S'Origin'
p1903
S'South America'
p1904
sS'Substrate'
p1905
S'Fine gravel'
p1906
sS'Temperature'
p1907
S'20-28 &#xB0;C'
p1908
sS'dGH'
p1909
S'0-18'
p1910
sS'Photo URL'
p1911
S'http://www.aqua-fish.net/imgs/plants/125.jpg'
p1912
sS'Propagation'
p1913
S'Rhizome'
p1914
sS'Lighting'
p1915
S'Bright'
p1916
sS'Growth speed'
p1917
S'Normal'
p1918
sS'ph'
p1919
S'5.7-7.7'
p1920
sS'Place in the aquarium'
p1921
S'Background'
p1922
sS'Plant name'
p1923
S'Echinodorus macrophyllus'
p1924
sS'Size'
p1925
S'30-50 cm'
p1926
sa(dp1927
S'Origin'
p1928
S'South America'
p1929
sS'Substrate'
p1930
S'Gravel'
p1931
sS'Temperature'
p1932
S'22-26 &#xB0;C'
p1933
sS'dGH'
p1934
S'4-12'
p1935
sS'Photo URL'
p1936
S'http://www.aqua-fish.net/imgs/plants/032.jpg'
p1937
sS'Propagation'
p1938
S'Rhizome'
p1939
sS'Lighting'
p1940
S'Bright'
p1941
sS'Growth speed'
p1942
S'Normal'
p1943
sS'ph'
p1944
S'6.3-7.2'
p1945
sS'Place in the aquarium'
p1946
S'Middle'
p1947
sS'Plant name'
p1948
S'Echinodorus major'
p1949
sS'Size'
p1950
S'30-50 cm'
p1951
sa(dp1952
S'Origin'
p1953
S'South America'
p1954
sS'Substrate'
p1955
S'Fine gravel'
p1956
sS'Temperature'
p1957
S'21-27 &#xB0;C'
p1958
sS'dGH'
p1959
S'4-18'
p1960
sS'Photo URL'
p1961
S'http://www.aqua-fish.net/imgs/plants/echinodorus-osiris-profile.jpg'
p1962
sS'Propagation'
p1963
S'Rhizome'
p1964
sS'Lighting'
p1965
S'Medium'
p1966
sS'Growth speed'
p1967
S'Fast'
p1968
sS'ph'
p1969
S'6.5-7.5'
p1970
sS'Place in the aquarium'
p1971
S'Middle'
p1972
sS'Plant name'
p1973
S'Echinodorus osiris'
p1974
sS'Size'
p1975
S'20-50 cm'
p1976
sa(dp1977
S'Origin'
p1978
S'South America'
p1979
sS'Substrate'
p1980
S'Gravel'
p1981
sS'Temperature'
p1982
S'22-28 &#xB0;C'
p1983
sS'dGH'
p1984
S'4-18'
p1985
sS'Photo URL'
p1986
S'http://www.aqua-fish.net/imgs/plants/034.jpg'
p1987
sS'Propagation'
p1988
S'Rhizome'
p1989
sS'Lighting'
p1990
S'Medium'
p1991
sS'Growth speed'
p1992
S'Slow'
p1993
sS'ph'
p1994
S'6.2-7.2'
p1995
sS'Place in the aquarium'
p1996
S'Foreground'
p1997
sS'Plant name'
p1998
S'Echinodorus parviflorus'
p1999
sS'Size'
p2000
S'5-15 cm'
p2001
sa(dp2002
S'Origin'
p2003
S'Central America'
p2004
sS'Substrate'
p2005
S'Gravel'
p2006
sS'Temperature'
p2007
S'21-28 &#xB0;C'
p2008
sS'dGH'
p2009
S'4-12'
p2010
sS'Photo URL'
p2011
S'http://www.aqua-fish.net/imgs/plants/037.jpg'
p2012
sS'Propagation'
p2013
S'Rhizome'
p2014
sS'Lighting'
p2015
S'Bright'
p2016
sS'Growth speed'
p2017
S'Fast'
p2018
sS'ph'
p2019
S'6.5-7.4'
p2020
sS'Place in the aquarium'
p2021
S'Foreground'
p2022
sS'Plant name'
p2023
S'Echinodorus quadricostatus'
p2024
sS'Size'
p2025
S'10-15 cm'
p2026
sa(dp2027
S'Origin'
p2028
S'South America'
p2029
sS'Substrate'
p2030
S'Fine gravel'
p2031
sS'Temperature'
p2032
S'21-27 &#xB0;C'
p2033
sS'dGH'
p2034
S'4-18'
p2035
sS'Photo URL'
p2036
S'http://www.aqua-fish.net/imgs/plants/126.jpg'
p2037
sS'Propagation'
p2038
S'Rhizome'
p2039
sS'Lighting'
p2040
S'Bright'
p2041
sS'Growth speed'
p2042
S'Normal'
p2043
sS'ph'
p2044
S'6.1-8'
p2045
sS'Place in the aquarium'
p2046
S'Middle'
p2047
sS'Plant name'
p2048
S'Echinodorus schlueteri'
p2049
sS'Size'
p2050
S'15-25 cm'
p2051
sa(dp2052
S'Origin'
p2053
S'South America'
p2054
sS'Substrate'
p2055
S'Sand'
p2056
sS'Temperature'
p2057
S'20-26 &#xB0;C'
p2058
sS'dGH'
p2059
S'4-12'
p2060
sS'Photo URL'
p2061
S'http://www.aqua-fish.net/imgs/plants/127.jpg'
p2062
sS'Propagation'
p2063
S'Rhizome'
p2064
sS'Lighting'
p2065
S'Bright'
p2066
sS'Growth speed'
p2067
S'Normal'
p2068
sS'ph'
p2069
S'6.5-7.8'
p2070
sS'Place in the aquarium'
p2071
S'Background'
p2072
sS'Plant name'
p2073
S'Echinodorus subalatus'
p2074
sS'Size'
p2075
S'25-40 cm'
p2076
sa(dp2077
S'Origin'
p2078
S'North America'
p2079
sS'Substrate'
p2080
S'Fine gravel'
p2081
sS'Temperature'
p2082
S'20-29 &#xB0;C'
p2083
sS'dGH'
p2084
S'4-18'
p2085
sS'Photo URL'
p2086
S'http://www.aqua-fish.net/imgs/plants/echinodorus-tenellus-profile.jpg'
p2087
sS'Propagation'
p2088
S'Runners'
p2089
sS'Lighting'
p2090
S'Medium'
p2091
sS'Growth speed'
p2092
S'Fast'
p2093
sS'ph'
p2094
S'6.2-7.5'
p2095
sS'Place in the aquarium'
p2096
S'Foreground'
p2097
sS'Plant name'
p2098
S'Echinodorus tenellus'
p2099
sS'Size'
p2100
S'5-10 cm'
p2101
sa(dp2102
S'Origin'
p2103
S'South America'
p2104
sS'Substrate'
p2105
S'Fine gravel'
p2106
sS'Temperature'
p2107
S'15-26 &#xB0;C'
p2108
sS'dGH'
p2109
S'4-18'
p2110
sS'Photo URL'
p2111
S'http://www.aqua-fish.net/imgs/plants/035.jpg'
p2112
sS'Propagation'
p2113
S'Rhizome'
p2114
sS'Lighting'
p2115
S'Medium'
p2116
sS'Growth speed'
p2117
S'Normal'
p2118
sS'ph'
p2119
S'6.1-7.8'
p2120
sS'Place in the aquarium'
p2121
S'Middle'
p2122
sS'Plant name'
p2123
S'Echinodorus uruguayensis'
p2124
sS'Size'
p2125
S'20-55 cm'
p2126
sa(dp2127
S'Origin'
p2128
S'Cultivated form'
p2129
sS'Substrate'
p2130
S'Fine gravel'
p2131
sS'Temperature'
p2132
S'22-27 &#xB0;C'
p2133
sS'dGH'
p2134
S'4-30'
p2135
sS'Photo URL'
p2136
S'http://www.aqua-fish.net/imgs/plants/echinodorus-ozelot-profile.jpg'
p2137
sS'Propagation'
p2138
S'Rhizome'
p2139
sS'Lighting'
p2140
S'Medium'
p2141
sS'Growth speed'
p2142
S'Fast'
p2143
sS'ph'
p2144
S'6.3-8.5'
p2145
sS'Place in the aquarium'
p2146
S'Middle'
p2147
sS'Plant name'
p2148
S'Echinodorus \xe2\x80\x9cOzelot\xe2\x80\x9d'
p2149
sS'Size'
p2150
S'20-40 cm'
p2151
sa(dp2152
S'Origin'
p2153
S'Cultivated form'
p2154
sS'Substrate'
p2155
S'Gravel'
p2156
sS'Temperature'
p2157
S'21-29 &#xB0;C'
p2158
sS'dGH'
p2159
S'0-30'
p2160
sS'Photo URL'
p2161
S'http://www.aqua-fish.net/imgs/plants/121.jpg'
p2162
sS'Propagation'
p2163
S'Rhizome'
p2164
sS'Lighting'
p2165
S'Bright'
p2166
sS'Growth speed'
p2167
S'Normal'
p2168
sS'ph'
p2169
S'6.2-7.6'
p2170
sS'Place in the aquarium'
p2171
S'Middle'
p2172
sS'Plant name'
p2173
S'Echinodorus \xe2\x80\x9cRed Flame\xe2\x80\x9d'
p2174
sS'Size'
p2175
S'10-30 cm'
p2176
sa(dp2177
S'Origin'
p2178
S'Cultivated form'
p2179
sS'Substrate'
p2180
S'Fine gravel'
p2181
sS'Temperature'
p2182
S'22-30 &#xB0;C'
p2183
sS'dGH'
p2184
S'0-30'
p2185
sS'Photo URL'
p2186
S'http://www.aqua-fish.net/imgs/na.jpg'
p2187
sS'Propagation'
p2188
S'Rhizome'
p2189
sS'Lighting'
p2190
S'Medium'
p2191
sS'Growth speed'
p2192
S'Normal'
p2193
sS'ph'
p2194
S'5.5-7.7'
p2195
sS'Place in the aquarium'
p2196
S'Middle'
p2197
sS'Plant name'
p2198
S'Echinodorus \xe2\x80\x9cRed Special\xe2\x80\x9d'
p2199
sS'Size'
p2200
S'10-30 cm'
p2201
sa(dp2202
S'Origin'
p2203
S'Cultivated form'
p2204
sS'Substrate'
p2205
S'Fine gravel'
p2206
sS'Temperature'
p2207
S'17-27 &#xB0;C'
p2208
sS'dGH'
p2209
S'4-18'
p2210
sS'Photo URL'
p2211
S'http://www.aqua-fish.net/imgs/plants/036.jpg'
p2212
sS'Propagation'
p2213
S'Rhizome'
p2214
sS'Lighting'
p2215
S'Bright'
p2216
sS'Growth speed'
p2217
S'Normal'
p2218
sS'ph'
p2219
S'6.5-7.5'
p2220
sS'Place in the aquarium'
p2221
S'Middle'
p2222
sS'Plant name'
p2223
S'Echinodorus \xe2\x80\x9cRubin\xe2\x80\x9d'
p2224
sS'Size'
p2225
S'30-50 cm'
p2226
sa(dp2227
S'Origin'
p2228
S'Cultivated form'
p2229
sS'Substrate'
p2230
S'Gravel'
p2231
sS'Temperature'
p2232
S'22-29 &#xB0;C'
p2233
sS'dGH'
p2234
S'0-30'
p2235
sS'Photo URL'
p2236
S'http://www.aqua-fish.net/imgs/plants/122.jpg'
p2237
sS'Propagation'
p2238
S'Rhizome'
p2239
sS'Lighting'
p2240
S'Medium'
p2241
sS'Growth speed'
p2242
S'Normal'
p2243
sS'ph'
p2244
S'5.5-7.8'
p2245
sS'Place in the aquarium'
p2246
S'Foreground'
p2247
sS'Plant name'
p2248
S'Echinodorus \xe2\x80\x9cTricolour\xe2\x80\x9d'
p2249
sS'Size'
p2250
S'20-40 cm'
p2251
sa(dp2252
S'Origin'
p2253
S'South America'
p2254
sS'Substrate'
p2255
S'Rocky'
p2256
sS'Temperature'
p2257
S'15-25 &#xB0;C'
p2258
sS'dGH'
p2259
S'4-18'
p2260
sS'Photo URL'
p2261
S'http://www.aqua-fish.net/imgs/plants/047.jpg'
p2262
sS'Propagation'
p2263
S'Cuttings'
p2264
sS'Lighting'
p2265
S'Bright'
p2266
sS'Growth speed'
p2267
S'Fast'
p2268
sS'ph'
p2269
S'6.8-7.9'
p2270
sS'Place in the aquarium'
p2271
S'Background'
p2272
sS'Plant name'
p2273
S'Egeria densa'
p2274
sS'Size'
p2275
S'40-100 cm'
p2276
sa(dp2277
S'Origin'
p2278
S'Everywhere'
p2279
sS'Substrate'
p2280
S'Fine gravel'
p2281
sS'Temperature'
p2282
S'15-25 &#xB0;C'
p2283
sS'dGH'
p2284
S'4-12'
p2285
sS'Photo URL'
p2286
S'http://www.aqua-fish.net/imgs/plants/082.jpg'
p2287
sS'Propagation'
p2288
S'Rhizome'
p2289
sS'Lighting'
p2290
S'Bright'
p2291
sS'Growth speed'
p2292
S'Slow'
p2293
sS'ph'
p2294
S'6.3-7'
p2295
sS'Place in the aquarium'
p2296
S'Middle'
p2297
sS'Plant name'
p2298
S'Eleocharis acicularis'
p2299
sS'Size'
p2300
S'5-15 cm'
p2301
sa(dp2302
S'Origin'
p2303
S'South America'
p2304
sS'Substrate'
p2305
S'Fine gravel'
p2306
sS'Temperature'
p2307
S'22-26 &#xB0;C'
p2308
sS'dGH'
p2309
S'4-12'
p2310
sS'Photo URL'
p2311
S'http://www.aqua-fish.net/imgs/plants/027.jpg'
p2312
sS'Propagation'
p2313
S'Cuttings'
p2314
sS'Lighting'
p2315
S'Bright'
p2316
sS'Growth speed'
p2317
S'Normal'
p2318
sS'ph'
p2319
S'6.5-7.2'
p2320
sS'Place in the aquarium'
p2321
S'Middle'
p2322
sS'Plant name'
p2323
S'Eleocharis vivipara'
p2324
sS'Size'
p2325
S'20-25 cm'
p2326
sa(dp2327
S'Origin'
p2328
S'North America'
p2329
sS'Substrate'
p2330
S'Gravel'
p2331
sS'Temperature'
p2332
S'20-24 &#xB0;C'
p2333
sS'dGH'
p2334
S'4-17'
p2335
sS'Photo URL'
p2336
S'http://www.aqua-fish.net/imgs/plants/elodea-canadensis-profile.jpg'
p2337
sS'Propagation'
p2338
S'Cuttings'
p2339
sS'Lighting'
p2340
S'Bright'
p2341
sS'Growth speed'
p2342
S'Fast'
p2343
sS'ph'
p2344
S'6.7-7.5'
p2345
sS'Place in the aquarium'
p2346
S'Background'
p2347
sS'Plant name'
p2348
S'Elodea canadensis'
p2349
sS'Size'
p2350
S'25-140 cm'
p2351
sa(dp2352
S'Origin'
p2353
S'Oceania'
p2354
sS'Substrate'
p2355
S'Gravel'
p2356
sS'Temperature'
p2357
S'20-26 &#xB0;C'
p2358
sS'dGH'
p2359
S'4-8'
p2360
sS'Photo URL'
p2361
S'http://www.aqua-fish.net/imgs/plants/glossostigma-elatinoides-profile.jpg'
p2362
sS'Propagation'
p2363
S'Runners'
p2364
sS'Lighting'
p2365
S'Bright'
p2366
sS'Growth speed'
p2367
S'Fast'
p2368
sS'ph'
p2369
S'5.8-7.2'
p2370
sS'Place in the aquarium'
p2371
S'Foreground'
p2372
sS'Plant name'
p2373
S'Glossostigma elatinoides'
p2374
sS'Size'
p2375
S'1-2 cm'
p2376
sa(dp2377
S'Origin'
p2378
S'North America'
p2379
sS'Substrate'
p2380
S'Fine gravel'
p2381
sS'Temperature'
p2382
S'21-27 &#xB0;C'
p2383
sS'dGH'
p2384
S'5-11'
p2385
sS'Photo URL'
p2386
S'http://www.aqua-fish.net/imgs/plants/hemianthus-callitrichoides-profile.jpg'
p2387
sS'Propagation'
p2388
S'Runners'
p2389
sS'Lighting'
p2390
S'Bright'
p2391
sS'Growth speed'
p2392
S'Fast'
p2393
sS'ph'
p2394
S'6-7.3'
p2395
sS'Place in the aquarium'
p2396
S'Foreground'
p2397
sS'Plant name'
p2398
S'Hemianthus callitrichoides'
p2399
sS'Size'
p2400
S'0-5 cm'
p2401
sa(dp2402
S'Origin'
p2403
S'North America'
p2404
sS'Substrate'
p2405
S'Fine gravel'
p2406
sS'Temperature'
p2407
S'19-27 &#xB0;C'
p2408
sS'dGH'
p2409
S'4-18'
p2410
sS'Photo URL'
p2411
S'http://www.aqua-fish.net/imgs/plants/hemianthus-micranthemoides-profile.jpg'
p2412
sS'Propagation'
p2413
S'Cuttings'
p2414
sS'Lighting'
p2415
S'Bright'
p2416
sS'Growth speed'
p2417
S'Fast'
p2418
sS'ph'
p2419
S'6.3-7.2'
p2420
sS'Place in the aquarium'
p2421
S'Background'
p2422
sS'Plant name'
p2423
S'Hemianthus micranthemoides'
p2424
sS'Size'
p2425
S'20-40 cm'
p2426
sa(dp2427
S'Origin'
p2428
S'South America'
p2429
sS'Substrate'
p2430
S'Fine gravel'
p2431
sS'Temperature'
p2432
S'20-28 &#xB0;C'
p2433
sS'dGH'
p2434
S'4-18'
p2435
sS'Photo URL'
p2436
S'http://www.aqua-fish.net/imgs/plants/099.jpg'
p2437
sS'Propagation'
p2438
S'Cuttings'
p2439
sS'Lighting'
p2440
S'Medium'
p2441
sS'Growth speed'
p2442
S'Fast'
p2443
sS'ph'
p2444
S'6-8'
p2445
sS'Place in the aquarium'
p2446
S'Background'
p2447
sS'Plant name'
p2448
S'Heteranthera zosterifolia'
p2449
sS'Size'
p2450
S'50-100 cm'
p2451
sa(dp2452
S'Origin'
p2453
S'South America'
p2454
sS'Substrate'
p2455
S'Fine gravel'
p2456
sS'Temperature'
p2457
S'15-25 &#xB0;C'
p2458
sS'dGH'
p2459
S'4-18'
p2460
sS'Photo URL'
p2461
S'http://www.aqua-fish.net/imgs/plants/105.jpg'
p2462
sS'Propagation'
p2463
S'Lateral shoots'
p2464
sS'Lighting'
p2465
S'Bright'
p2466
sS'Growth speed'
p2467
S'Slow'
p2468
sS'ph'
p2469
S'6-7.8'
p2470
sS'Place in the aquarium'
p2471
S'Foreground'
p2472
sS'Plant name'
p2473
S'Hydrocotyle verticillata'
p2474
sS'Size'
p2475
S'0-10 cm'
p2476
sa(dp2477
S'Origin'
p2478
S'East Asia'
p2479
sS'Substrate'
p2480
S'Fine gravel'
p2481
sS'Temperature'
p2482
S'20-28 &#xB0;C'
p2483
sS'dGH'
p2484
S'4-18'
p2485
sS'Photo URL'
p2486
S'http://www.aqua-fish.net/imgs/plants/hygrophila-corymbosa-profile.jpg'
p2487
sS'Propagation'
p2488
S'Cuttings'
p2489
sS'Lighting'
p2490
S'Bright'
p2491
sS'Growth speed'
p2492
S'Fast'
p2493
sS'ph'
p2494
S'6.3-7.5'
p2495
sS'Place in the aquarium'
p2496
S'Middle'
p2497
sS'Plant name'
p2498
S'Hygrophila corymbosa'
p2499
sS'Size'
p2500
S'15-40 cm'
p2501
sa(dp2502
S'Origin'
p2503
S'South Asia'
p2504
sS'Substrate'
p2505
S'Fine gravel'
p2506
sS'Temperature'
p2507
S'22-27 &#xB0;C'
p2508
sS'dGH'
p2509
S'4-18'
p2510
sS'Photo URL'
p2511
S'http://www.aqua-fish.net/imgs/plants/hygrophila-difformis-profile.jpg'
p2512
sS'Propagation'
p2513
S'Cuttings'
p2514
sS'Lighting'
p2515
S'Bright'
p2516
sS'Growth speed'
p2517
S'Fast'
p2518
sS'ph'
p2519
S'6.2-7.3'
p2520
sS'Place in the aquarium'
p2521
S'Background'
p2522
sS'Plant name'
p2523
S'Hygrophila difformis'
p2524
sS'Size'
p2525
S'20-50 cm'
p2526
sa(dp2527
S'Origin'
p2528
S'Cultivated form'
p2529
sS'Substrate'
p2530
S'Fine gravel'
p2531
sS'Temperature'
p2532
S'22-24 &#xB0;C'
p2533
sS'dGH'
p2534
S'4-18'
p2535
sS'Photo URL'
p2536
S'http://www.aqua-fish.net/imgs/plants/025.jpg'
p2537
sS'Propagation'
p2538
S'Cuttings'
p2539
sS'Lighting'
p2540
S'Bright'
p2541
sS'Growth speed'
p2542
S'Fast'
p2543
sS'ph'
p2544
S'6.2-7.3'
p2545
sS'Place in the aquarium'
p2546
S'Background'
p2547
sS'Plant name'
p2548
S'Hygrophila difformis variegated'
p2549
sS'Size'
p2550
S'25-60 cm'
p2551
sa(dp2552
S'Origin'
p2553
S'South America'
p2554
sS'Substrate'
p2555
S'Fine gravel'
p2556
sS'Temperature'
p2557
S'20-30 &#xB0;C'
p2558
sS'dGH'
p2559
S'4-18'
p2560
sS'Photo URL'
p2561
S'http://www.aqua-fish.net/imgs/plants/137.jpg'
p2562
sS'Propagation'
p2563
S'Rhizome'
p2564
sS'Lighting'
p2565
S'Bright'
p2566
sS'Growth speed'
p2567
S'Fast'
p2568
sS'ph'
p2569
S'6-8'
p2570
sS'Place in the aquarium'
p2571
S'Background'
p2572
sS'Plant name'
p2573
S'Hygrophila guianensis'
p2574
sS'Size'
p2575
S'15-40 cm'
p2576
sa(dp2577
S'Origin'
p2578
S'South Asia'
p2579
sS'Substrate'
p2580
S'Gravel'
p2581
sS'Temperature'
p2582
S'21-26 &#xB0;C'
p2583
sS'dGH'
p2584
S'4-18'
p2585
sS'Photo URL'
p2586
S'http://www.aqua-fish.net/imgs/plants/hygrophila-polysperma-profile.jpg'
p2587
sS'Propagation'
p2588
S'Cuttings'
p2589
sS'Lighting'
p2590
S'Bright'
p2591
sS'Growth speed'
p2592
S'Fast'
p2593
sS'ph'
p2594
S'5-8'
p2595
sS'Place in the aquarium'
p2596
S'Background'
p2597
sS'Plant name'
p2598
S'Hygrophila polysperma'
p2599
sS'Size'
p2600
S'25-45 cm'
p2601
sa(dp2602
S'Origin'
p2603
S'Cultivated form'
p2604
sS'Substrate'
p2605
S'Fine gravel'
p2606
sS'Temperature'
p2607
S'20-26 &#xB0;C'
p2608
sS'dGH'
p2609
S'5-18'
p2610
sS'Photo URL'
p2611
S'http://www.aqua-fish.net/imgs/plants/sunset-hygrophila-profile.jpg'
p2612
sS'Propagation'
p2613
S'Cuttings'
p2614
sS'Lighting'
p2615
S'Medium'
p2616
sS'Growth speed'
p2617
S'Fast'
p2618
sS'ph'
p2619
S'6.1-7.7'
p2620
sS'Place in the aquarium'
p2621
S'Background'
p2622
sS'Plant name'
p2623
S'Hygrophila Polysperma \xe2\x80\x98Rosanervig\xe2\x80\x99'
p2624
sS'Size'
p2625
S'20-50 cm'
p2626
sa(dp2627
S'Origin'
p2628
S'South Asia'
p2629
sS'Substrate'
p2630
S'Fine gravel'
p2631
sS'Temperature'
p2632
S'22-25 &#xB0;C'
p2633
sS'dGH'
p2634
S'4-12'
p2635
sS'Photo URL'
p2636
S'http://www.aqua-fish.net/imgs/plants/024.jpg'
p2637
sS'Propagation'
p2638
S'Cuttings'
p2639
sS'Lighting'
p2640
S'Bright'
p2641
sS'Growth speed'
p2642
S'Fast'
p2643
sS'ph'
p2644
S'6.2-7.3'
p2645
sS'Place in the aquarium'
p2646
S'Background'
p2647
sS'Plant name'
p2648
S'Hygrophila salicifolia (stricta)'
p2649
sS'Size'
p2650
S'25-70 cm'
p2651
sa(dp2652
S'Origin'
p2653
S'South Asia'
p2654
sS'Substrate'
p2655
S'Without substrate'
p2656
sS'Temperature'
p2657
S'22-28 &#xB0;C'
p2658
sS'dGH'
p2659
S'4-18'
p2660
sS'Photo URL'
p2661
S'http://www.aqua-fish.net/imgs/plants/hygroryza-aristata.jpg'
p2662
sS'Propagation'
p2663
S'Cuttings'
p2664
sS'Lighting'
p2665
S'Bright'
p2666
sS'Growth speed'
p2667
S'Normal'
p2668
sS'ph'
p2669
S'6.2-7.8'
p2670
sS'Place in the aquarium'
p2671
S'Floating'
p2672
sS'Plant name'
p2673
S'Hygroryza aristata'
p2674
sS'Size'
p2675
S'1-4 cm'
p2676
sa(dp2677
S'Origin'
p2678
S'Sri Lanka'
p2679
sS'Substrate'
p2680
S'Fine gravel'
p2681
sS'Temperature'
p2682
S'19-26 &#xB0;C'
p2683
sS'dGH'
p2684
S'0-18'
p2685
sS'Photo URL'
p2686
S'http://www.aqua-fish.net/imgs/plants/138.jpg'
p2687
sS'Propagation'
p2688
S'Runners'
p2689
sS'Lighting'
p2690
S'Medium'
p2691
sS'Growth speed'
p2692
S'Normal'
p2693
sS'ph'
p2694
S'6.5-7.2'
p2695
sS'Place in the aquarium'
p2696
S'Background'
p2697
sS'Plant name'
p2698
S'Lagenandra ovata'
p2699
sS'Size'
p2700
S'30-90 cm'
p2701
sa(dp2702
S'Origin'
p2703
S'Everywhere'
p2704
sS'Substrate'
p2705
S'Without substrate'
p2706
sS'Temperature'
p2707
S'17-26 &#xB0;C'
p2708
sS'dGH'
p2709
S'4-30'
p2710
sS'Photo URL'
p2711
S'http://www.aqua-fish.net/imgs/plants/lemna-minor-profile.jpg'
p2712
sS'Propagation'
p2713
S'Divisions'
p2714
sS'Lighting'
p2715
S'Bright'
p2716
sS'Growth speed'
p2717
S'Fast'
p2718
sS'ph'
p2719
S'5.1-6.7'
p2720
sS'Place in the aquarium'
p2721
S'Floating'
p2722
sS'Plant name'
p2723
S'Lemna minor'
p2724
sS'Size'
p2725
S'0-2 cm'
p2726
sa(dp2727
S'Origin'
p2728
S'South America'
p2729
sS'Substrate'
p2730
S'Fine gravel'
p2731
sS'Temperature'
p2732
S'15-24 &#xB0;C'
p2733
sS'dGH'
p2734
S'4-18'
p2735
sS'Photo URL'
p2736
S'http://www.aqua-fish.net/imgs/plants/lilaeopsis-brasiliensis.jpg'
p2737
sS'Propagation'
p2738
S'Runners'
p2739
sS'Lighting'
p2740
S'Bright'
p2741
sS'Growth speed'
p2742
S'Slow'
p2743
sS'ph'
p2744
S'6.5-7.5'
p2745
sS'Place in the aquarium'
p2746
S'Foreground'
p2747
sS'Plant name'
p2748
S'Lilaeopsis brasiliensis'
p2749
sS'Size'
p2750
S'0-7 cm'
p2751
sa(dp2752
S'Origin'
p2753
S'Sri Lanka'
p2754
sS'Substrate'
p2755
S'Gravel'
p2756
sS'Temperature'
p2757
S'24-27 &#xB0;C'
p2758
sS'dGH'
p2759
S'4-8'
p2760
sS'Photo URL'
p2761
S'http://www.aqua-fish.net/imgs/plants/052.jpg'
p2762
sS'Propagation'
p2763
S'Cuttings'
p2764
sS'Lighting'
p2765
S'Bright'
p2766
sS'Growth speed'
p2767
S'Fast'
p2768
sS'ph'
p2769
S'6.2-7.1'
p2770
sS'Place in the aquarium'
p2771
S'Background'
p2772
sS'Plant name'
p2773
S'Limnophila aquatica'
p2774
sS'Size'
p2775
S'25-50 cm'
p2776
sa(dp2777
S'Origin'
p2778
S'East Asia'
p2779
sS'Substrate'
p2780
S'Fine gravel'
p2781
sS'Temperature'
p2782
S'21-28 &#xB0;C'
p2783
sS'dGH'
p2784
S'3-14'
p2785
sS'Photo URL'
p2786
S'http://www.aqua-fish.net/imgs/plants/limnophila-aromatica.jpg'
p2787
sS'Propagation'
p2788
S'Cuttings'
p2789
sS'Lighting'
p2790
S'Bright'
p2791
sS'Growth speed'
p2792
S'Fast'
p2793
sS'ph'
p2794
S'6-7.5'
p2795
sS'Place in the aquarium'
p2796
S'Background'
p2797
sS'Plant name'
p2798
S'Limnophila aromatica'
p2799
sS'Size'
p2800
S'30-40 cm'
p2801
sa(dp2802
S'Origin'
p2803
S'South Asia'
p2804
sS'Substrate'
p2805
S'Fine gravel'
p2806
sS'Temperature'
p2807
S'21-28 &#xB0;C'
p2808
sS'dGH'
p2809
S'4-18'
p2810
sS'Photo URL'
p2811
S'http://www.aqua-fish.net/imgs/plants/095.jpg'
p2812
sS'Propagation'
p2813
S'Cuttings'
p2814
sS'Lighting'
p2815
S'Bright'
p2816
sS'Growth speed'
p2817
S'Fast'
p2818
sS'ph'
p2819
S'6-7.5'
p2820
sS'Place in the aquarium'
p2821
S'Background'
p2822
sS'Plant name'
p2823
S'Limnophila sessiliflora'
p2824
sS'Size'
p2825
S'20-35 cm'
p2826
sa(dp2827
S'Origin'
p2828
S'East Asia'
p2829
sS'Substrate'
p2830
S'Fine gravel'
p2831
sS'Temperature'
p2832
S'18-28 &#xB0;C'
p2833
sS'dGH'
p2834
S'4-18'
p2835
sS'Photo URL'
p2836
S'http://www.aqua-fish.net/imgs/plants/092.jpg'
p2837
sS'Propagation'
p2838
S'Lateral shoots'
p2839
sS'Lighting'
p2840
S'Bright'
p2841
sS'Growth speed'
p2842
S'Fast'
p2843
sS'ph'
p2844
S'6-8'
p2845
sS'Place in the aquarium'
p2846
S'Middle'
p2847
sS'Plant name'
p2848
S'Lindernia rotundifolia'
p2849
sS'Size'
p2850
S'20-30 cm'
p2851
sa(dp2852
S'Origin'
p2853
S'North America'
p2854
sS'Substrate'
p2855
S'Fine gravel'
p2856
sS'Temperature'
p2857
S'20-26 &#xB0;C'
p2858
sS'dGH'
p2859
S'3-16'
p2860
sS'Photo URL'
p2861
S'http://www.aqua-fish.net/imgs/plants/ludwigia-brevipes.jpg'
p2862
sS'Propagation'
p2863
S'Cuttings'
p2864
sS'Lighting'
p2865
S'Bright'
p2866
sS'Growth speed'
p2867
S'Normal'
p2868
sS'ph'
p2869
S'5.3-7'
p2870
sS'Place in the aquarium'
p2871
S'Middle'
p2872
sS'Plant name'
p2873
S'Ludwigia brevipes'
p2874
sS'Size'
p2875
S'15-30 cm'
p2876
sa(dp2877
S'Origin'
p2878
S'North America'
p2879
sS'Substrate'
p2880
S'Fine gravel'
p2881
sS'Temperature'
p2882
S'20-28 &#xB0;C'
p2883
sS'dGH'
p2884
S'4-12'
p2885
sS'Photo URL'
p2886
S'http://www.aqua-fish.net/imgs/plants/094.jpg'
p2887
sS'Propagation'
p2888
S'Cuttings'
p2889
sS'Lighting'
p2890
S'Bright'
p2891
sS'Growth speed'
p2892
S'Slow'
p2893
sS'ph'
p2894
S'6-7.2'
p2895
sS'Place in the aquarium'
p2896
S'Background'
p2897
sS'Plant name'
p2898
S'Ludwigia glandulosa'
p2899
sS'Size'
p2900
S'15-40 cm'
p2901
sa(dp2902
S'Origin'
p2903
S'South America'
p2904
sS'Substrate'
p2905
S'Without substrate'
p2906
sS'Temperature'
p2907
S'20-26 &#xB0;C'
p2908
sS'dGH'
p2909
S'3-18'
p2910
sS'Photo URL'
p2911
S'http://www.aqua-fish.net/imgs/plants/ludwigia-helminthorrhiza.jpg'
p2912
sS'Propagation'
p2913
S'Lateral shoots'
p2914
sS'Lighting'
p2915
S'Bright'
p2916
sS'Growth speed'
p2917
S'Normal'
p2918
sS'ph'
p2919
S'5.8-7.4'
p2920
sS'Place in the aquarium'
p2921
S'Floating'
p2922
sS'Plant name'
p2923
S'Ludwigia helminthorrhiza'
p2924
sS'Size'
p2925
S'2-5 cm'
p2926
sa(dp2927
S'Origin'
p2928
S'South America'
p2929
sS'Substrate'
p2930
S'Fine gravel'
p2931
sS'Temperature'
p2932
S'18-26 &#xB0;C'
p2933
sS'dGH'
p2934
S'4-18'
p2935
sS'Photo URL'
p2936
S'http://www.aqua-fish.net/imgs/plants/051.jpg'
p2937
sS'Propagation'
p2938
S'Cuttings'
p2939
sS'Lighting'
p2940
S'Bright'
p2941
sS'Growth speed'
p2942
S'Fast'
p2943
sS'ph'
p2944
S'6.5-7.4'
p2945
sS'Place in the aquarium'
p2946
S'Background'
p2947
sS'Plant name'
p2948
S'Ludwigia inclinata'
p2949
sS'Size'
p2950
S'20-40 cm'
p2951
sa(dp2952
S'Origin'
p2953
S'North America'
p2954
sS'Substrate'
p2955
S'Fine gravel'
p2956
sS'Temperature'
p2957
S'15-25 &#xB0;C'
p2958
sS'dGH'
p2959
S'10-20'
p2960
sS'Photo URL'
p2961
S'http://www.aqua-fish.net/imgs/plants/ludwigia-palustris.jpg'
p2962
sS'Propagation'
p2963
S'Cuttings'
p2964
sS'Lighting'
p2965
S'Bright'
p2966
sS'Growth speed'
p2967
S'Fast'
p2968
sS'ph'
p2969
S'6.5-7.5'
p2970
sS'Place in the aquarium'
p2971
S'Background'
p2972
sS'Plant name'
p2973
S'Ludwigia palustris'
p2974
sS'Size'
p2975
S'20-80 cm'
p2976
sa(dp2977
S'Origin'
p2978
S'North America'
p2979
sS'Substrate'
p2980
S'Fine gravel'
p2981
sS'Temperature'
p2982
S'22-28 &#xB0;C'
p2983
sS'dGH'
p2984
S'4-18'
p2985
sS'Photo URL'
p2986
S'http://www.aqua-fish.net/imgs/plants/050.jpg'
p2987
sS'Propagation'
p2988
S'Cuttings'
p2989
sS'Lighting'
p2990
S'Bright'
p2991
sS'Growth speed'
p2992
S'Normal'
p2993
sS'ph'
p2994
S'6.5-7.4'
p2995
sS'Place in the aquarium'
p2996
S'Middle'
p2997
sS'Plant name'
p2998
S'Ludwigia peruensis'
p2999
sS'Size'
p3000
S'40-55 cm'
p3001
sa(dp3002
S'Origin'
p3003
S'Central America'
p3004
sS'Substrate'
p3005
S'Fine gravel'
p3006
sS'Temperature'
p3007
S'15-28 &#xB0;C'
p3008
sS'dGH'
p3009
S'4-18'
p3010
sS'Photo URL'
p3011
S'http://www.aqua-fish.net/imgs/plants/ludwigia-repens-profile.jpg'
p3012
sS'Propagation'
p3013
S'Cuttings'
p3014
sS'Lighting'
p3015
S'Bright'
p3016
sS'Growth speed'
p3017
S'Fast'
p3018
sS'ph'
p3019
S'6.4-7.8'
p3020
sS'Place in the aquarium'
p3021
S'Background'
p3022
sS'Plant name'
p3023
S'Ludwigia repens'
p3024
sS'Size'
p3025
S'20-40 cm'
p3026
sa(dp3027
S'Origin'
p3028
S'Cultivated form'
p3029
sS'Substrate'
p3030
S'Fine gravel'
p3031
sS'Temperature'
p3032
S'15-25 &#xB0;C'
p3033
sS'dGH'
p3034
S'4-18'
p3035
sS'Photo URL'
p3036
S'http://www.aqua-fish.net/imgs/plants/093.jpg'
p3037
sS'Propagation'
p3038
S'Cuttings'
p3039
sS'Lighting'
p3040
S'Bright'
p3041
sS'Growth speed'
p3042
S'Fast'
p3043
sS'ph'
p3044
S'6.1-7.8'
p3045
sS'Place in the aquarium'
p3046
S'Middle'
p3047
sS'Plant name'
p3048
S'Lysimachia nummularia \xe2\x80\x9cAurea\xe2\x80\x9d'
p3049
sS'Size'
p3050
S'15-25 cm'
p3051
sa(dp3052
S'Origin'
p3053
S'Europe'
p3054
sS'Substrate'
p3055
S'Fine gravel'
p3056
sS'Temperature'
p3057
S'18-28 &#xB0;C'
p3058
sS'dGH'
p3059
S'4-12'
p3060
sS'Photo URL'
p3061
S'http://www.aqua-fish.net/imgs/plants/103.jpg'
p3062
sS'Propagation'
p3063
S'Runners'
p3064
sS'Lighting'
p3065
S'Bright'
p3066
sS'Growth speed'
p3067
S'Normal'
p3068
sS'ph'
p3069
S'6.3-7.3'
p3070
sS'Place in the aquarium'
p3071
S'Foreground'
p3072
sS'Plant name'
p3073
S'Marsilea quadrifolia'
p3074
sS'Size'
p3075
S'0-10 cm'
p3076
sa(dp3077
S'Origin'
p3078
S'South America'
p3079
sS'Substrate'
p3080
S'Fine gravel'
p3081
sS'Temperature'
p3082
S'23-28 &#xB0;C'
p3083
sS'dGH'
p3084
S'2-14'
p3085
sS'Photo URL'
p3086
S'http://www.aqua-fish.net/imgs/plants/mayaca-fluviatilis.jpg'
p3087
sS'Propagation'
p3088
S'Cuttings'
p3089
sS'Lighting'
p3090
S'Bright'
p3091
sS'Growth speed'
p3092
S'Fast'
p3093
sS'ph'
p3094
S'5.5-7'
p3095
sS'Place in the aquarium'
p3096
S'Background'
p3097
sS'Plant name'
p3098
S'Mayaca fluviatilis'
p3099
sS'Size'
p3100
S'15-60 cm'
p3101
sa(dp3102
S'Origin'
p3103
S'South Asia'
p3104
sS'Substrate'
p3105
S'Fine gravel'
p3106
sS'Temperature'
p3107
S'20-25 &#xB0;C'
p3108
sS'dGH'
p3109
S'4-15'
p3110
sS'Photo URL'
p3111
S'http://www.aqua-fish.net/imgs/plants/microsorium-pteropus-profile.jpg'
p3112
sS'Propagation'
p3113
S'Runners'
p3114
sS'Lighting'
p3115
S'Medium'
p3116
sS'Growth speed'
p3117
S'Slow'
p3118
sS'ph'
p3119
S'5.5-7.5'
p3120
sS'Place in the aquarium'
p3121
S'Middle'
p3122
sS'Plant name'
p3123
S'Microsorium pteropus'
p3124
sS'Size'
p3125
S'20-25 cm'
p3126
sa(dp3127
S'Origin'
p3128
S'South America'
p3129
sS'Substrate'
p3130
S'Fine gravel'
p3131
sS'Temperature'
p3132
S'23-28 &#xB0;C'
p3133
sS'dGH'
p3134
S'8-16'
p3135
sS'Photo URL'
p3136
S'http://www.aqua-fish.net/imgs/plants/141.jpg'
p3137
sS'Propagation'
p3138
S'Cuttings'
p3139
sS'Lighting'
p3140
S'Bright'
p3141
sS'Growth speed'
p3142
S'Fast'
p3143
sS'ph'
p3144
S'6-8'
p3145
sS'Place in the aquarium'
p3146
S'Background'
p3147
sS'Plant name'
p3148
S'Myriophyllum aquaticum'
p3149
sS'Size'
p3150
S'15-30 cm'
p3151
sa(dp3152
S'Origin'
p3153
S'Central America'
p3154
sS'Substrate'
p3155
S'Fine gravel'
p3156
sS'Temperature'
p3157
S'20-25 &#xB0;C'
p3158
sS'dGH'
p3159
S'4-12'
p3160
sS'Photo URL'
p3161
S'http://www.aqua-fish.net/imgs/plants/054.jpg'
p3162
sS'Propagation'
p3163
S'Cuttings'
p3164
sS'Lighting'
p3165
S'Bright'
p3166
sS'Growth speed'
p3167
S'Normal'
p3168
sS'ph'
p3169
S'6.5-7.2'
p3170
sS'Place in the aquarium'
p3171
S'Background'
p3172
sS'Plant name'
p3173
S'Myriophyllum hippuroides'
p3174
sS'Size'
p3175
S'50-60 cm'
p3176
sa(dp3177
S'Origin'
p3178
S'Europe'
p3179
sS'Substrate'
p3180
S'Fine gravel'
p3181
sS'Temperature'
p3182
S'20-27 &#xB0;C'
p3183
sS'dGH'
p3184
S'5-23'
p3185
sS'Photo URL'
p3186
S'http://www.aqua-fish.net/imgs/plants/eurasian-watermilfoil-profile.jpg'
p3187
sS'Propagation'
p3188
S'Lateral shoots'
p3189
sS'Lighting'
p3190
S'Medium'
p3191
sS'Growth speed'
p3192
S'Normal'
p3193
sS'ph'
p3194
S'6.3-7.7'
p3195
sS'Place in the aquarium'
p3196
S'Background'
p3197
sS'Plant name'
p3198
S'Myriophyllum spicatum'
p3199
sS'Size'
p3200
S'20-70 cm'
p3201
sa(dp3202
S'Origin'
p3203
S'North America'
p3204
sS'Substrate'
p3205
S'Fine gravel'
p3206
sS'Temperature'
p3207
S'22-26 &#xB0;C'
p3208
sS'dGH'
p3209
S'2-12'
p3210
sS'Photo URL'
p3211
S'http://www.aqua-fish.net/imgs/na.jpg'
p3212
sS'Propagation'
p3213
S'Cuttings'
p3214
sS'Lighting'
p3215
S'Medium'
p3216
sS'Growth speed'
p3217
S'Fast'
p3218
sS'ph'
p3219
S'6-7'
p3220
sS'Place in the aquarium'
p3221
S'Background'
p3222
sS'Plant name'
p3223
S'Najas conferta'
p3224
sS'Size'
p3225
S'50-100 cm'
p3226
sa(dp3227
S'Origin'
p3228
S'North America'
p3229
sS'Substrate'
p3230
S'Fine gravel'
p3231
sS'Temperature'
p3232
S'23-26 &#xB0;C'
p3233
sS'dGH'
p3234
S'2-10'
p3235
sS'Photo URL'
p3236
S'http://www.aqua-fish.net/imgs/plants/najas-guadaloupensis.jpg'
p3237
sS'Propagation'
p3238
S'Cuttings'
p3239
sS'Lighting'
p3240
S'Medium'
p3241
sS'Growth speed'
p3242
S'Fast'
p3243
sS'ph'
p3244
S'6-7'
p3245
sS'Place in the aquarium'
p3246
S'Background'
p3247
sS'Plant name'
p3248
S'Najas guadaloupensis'
p3249
sS'Size'
p3250
S'50-100 cm'
p3251
sa(dp3252
S'Origin'
p3253
S'Africa'
p3254
sS'Substrate'
p3255
S'Fine gravel'
p3256
sS'Temperature'
p3257
S'22-28 &#xB0;C'
p3258
sS'dGH'
p3259
S'0-12'
p3260
sS'Photo URL'
p3261
S'http://www.aqua-fish.net/imgs/plants/140.jpg'
p3262
sS'Propagation'
p3263
S'Cuttings'
p3264
sS'Lighting'
p3265
S'Bright'
p3266
sS'Growth speed'
p3267
S'Normal'
p3268
sS'ph'
p3269
S'6-8'
p3270
sS'Place in the aquarium'
p3271
S'Background'
p3272
sS'Plant name'
p3273
S'Nesaea crassicaulis'
p3274
sS'Size'
p3275
S'30-50 cm'
p3276
sa(dp3277
S'Origin'
p3278
S'East Asia'
p3279
sS'Substrate'
p3280
S'Fine gravel'
p3281
sS'Temperature'
p3282
S'15-25 &#xB0;C'
p3283
sS'dGH'
p3284
S'4-12'
p3285
sS'Photo URL'
p3286
S'http://www.aqua-fish.net/imgs/plants/084.jpg'
p3287
sS'Propagation'
p3288
S'Seeds'
p3289
sS'Lighting'
p3290
S'Bright'
p3291
sS'Growth speed'
p3292
S'Slow'
p3293
sS'ph'
p3294
S'6.5-7.5'
p3295
sS'Place in the aquarium'
p3296
S'Background'
p3297
sS'Plant name'
p3298
S'Nuphar japonicum'
p3299
sS'Size'
p3300
S'40-60 cm'
p3301
sa(dp3302
S'Origin'
p3303
S'Madagascar'
p3304
sS'Substrate'
p3305
S'Fine gravel'
p3306
sS'Temperature'
p3307
S'22-28 &#xB0;C'
p3308
sS'dGH'
p3309
S'4-12'
p3310
sS'Photo URL'
p3311
S'http://www.aqua-fish.net/imgs/plants/085.jpg'
p3312
sS'Propagation'
p3313
S'Rhizome'
p3314
sS'Lighting'
p3315
S'Bright'
p3316
sS'Growth speed'
p3317
S'Fast'
p3318
sS'ph'
p3319
S'5.5-7.5'
p3320
sS'Place in the aquarium'
p3321
S'Background'
p3322
sS'Plant name'
p3323
S'Nymphaea lotus'
p3324
sS'Size'
p3325
S'20-50 cm'
p3326
sa(dp3327
S'Origin'
p3328
S'Africa'
p3329
sS'Substrate'
p3330
S'Fine gravel'
p3331
sS'Temperature'
p3332
S'20-30 &#xB0;C'
p3333
sS'dGH'
p3334
S'4-12'
p3335
sS'Photo URL'
p3336
S'http://www.aqua-fish.net/imgs/plants/086.jpg'
p3337
sS'Propagation'
p3338
S'Seeds'
p3339
sS'Lighting'
p3340
S'Bright'
p3341
sS'Growth speed'
p3342
S'Normal'
p3343
sS'ph'
p3344
S'6.3-7.4'
p3345
sS'Place in the aquarium'
p3346
S'Background'
p3347
sS'Plant name'
p3348
S'Nymphaea maculata'
p3349
sS'Size'
p3350
S'25-45 cm'
p3351
sa(dp3352
S'Origin'
p3353
S'South Asia'
p3354
sS'Substrate'
p3355
S'Gravel'
p3356
sS'Temperature'
p3357
S'22-27 &#xB0;C'
p3358
sS'dGH'
p3359
S'5-23'
p3360
sS'Photo URL'
p3361
S'http://www.aqua-fish.net/imgs/plants/nymphaea-pubescens-profile.jpg'
p3362
sS'Propagation'
p3363
S'Rhizome'
p3364
sS'Lighting'
p3365
S'Bright'
p3366
sS'Growth speed'
p3367
S'Normal'
p3368
sS'ph'
p3369
S'6.1-7.7'
p3370
sS'Place in the aquarium'
p3371
S'Floating'
p3372
sS'Plant name'
p3373
S'Nymphaea pubescens'
p3374
sS'Size'
p3375
S'25-55 cm'
p3376
sa(dp3377
S'Origin'
p3378
S'Africa'
p3379
sS'Substrate'
p3380
S'Fine gravel'
p3381
sS'Temperature'
p3382
S'22-28 &#xB0;C'
p3383
sS'dGH'
p3384
S'4-8'
p3385
sS'Photo URL'
p3386
S'http://www.aqua-fish.net/imgs/plants/029.jpg'
p3387
sS'Propagation'
p3388
S'Rhizome'
p3389
sS'Lighting'
p3390
S'Bright'
p3391
sS'Growth speed'
p3392
S'Normal'
p3393
sS'ph'
p3394
S'6.5-7.2'
p3395
sS'Place in the aquarium'
p3396
S'Foreground'
p3397
sS'Plant name'
p3398
S'Nymphaea zenkeri'
p3399
sS'Size'
p3400
S'5-30 cm'
p3401
sa(dp3402
S'Origin'
p3403
S'Africa'
p3404
sS'Substrate'
p3405
S'Without substrate'
p3406
sS'Temperature'
p3407
S'21-30 &#xB0;C'
p3408
sS'dGH'
p3409
S'4-12'
p3410
sS'Photo URL'
p3411
S'http://www.aqua-fish.net/imgs/plants/phyllanthus-fluitans.jpg'
p3412
sS'Propagation'
p3413
S'Runners'
p3414
sS'Lighting'
p3415
S'Bright'
p3416
sS'Growth speed'
p3417
S'Slow'
p3418
sS'ph'
p3419
S'5.8-7'
p3420
sS'Place in the aquarium'
p3421
S'Floating'
p3422
sS'Plant name'
p3423
S'Phyllanthus fluitans'
p3424
sS'Size'
p3425
S'0-4 cm'
p3426
sa(dp3427
S'Origin'
p3428
S'Everywhere'
p3429
sS'Substrate'
p3430
S'Without substrate'
p3431
sS'Temperature'
p3432
S'20-28 &#xB0;C'
p3433
sS'dGH'
p3434
S'4-12'
p3435
sS'Photo URL'
p3436
S'http://www.aqua-fish.net/imgs/plants/pistia-stratiotes.jpg'
p3437
sS'Propagation'
p3438
S'Divisions'
p3439
sS'Lighting'
p3440
S'Bright'
p3441
sS'Growth speed'
p3442
S'Fast'
p3443
sS'ph'
p3444
S'6.5-7'
p3445
sS'Place in the aquarium'
p3446
S'Floating'
p3447
sS'Plant name'
p3448
S'Pistia stratiotes'
p3449
sS'Size'
p3450
S'5-20 cm'
p3451
sa(dp3452
S'Origin'
p3453
S'Central America'
p3454
sS'Substrate'
p3455
S'Fine gravel'
p3456
sS'Temperature'
p3457
S'15-28 &#xB0;C'
p3458
sS'dGH'
p3459
S'0-12'
p3460
sS'Photo URL'
p3461
S'http://www.aqua-fish.net/imgs/plants/096.jpg'
p3462
sS'Propagation'
p3463
S'Lateral shoots'
p3464
sS'Lighting'
p3465
S'Bright'
p3466
sS'Growth speed'
p3467
S'Fast'
p3468
sS'ph'
p3469
S'5-7.5'
p3470
sS'Place in the aquarium'
p3471
S'Background'
p3472
sS'Plant name'
p3473
S'Proserpinaca palustris'
p3474
sS'Size'
p3475
S'10-40 cm'
p3476
sa(dp3477
S'Origin'
p3478
S'Oceania'
p3479
sS'Substrate'
p3480
S'Fine gravel'
p3481
sS'Temperature'
p3482
S'15-24 &#xB0;C'
p3483
sS'dGH'
p3484
S'4-30'
p3485
sS'Photo URL'
p3486
S'http://www.aqua-fish.net/imgs/plants/129.jpg'
p3487
sS'Propagation'
p3488
S'Rhizome'
p3489
sS'Lighting'
p3490
S'Bright'
p3491
sS'Growth speed'
p3492
S'Slow'
p3493
sS'ph'
p3494
S'6-7'
p3495
sS'Place in the aquarium'
p3496
S'Foreground'
p3497
sS'Plant name'
p3498
S'Ranunculus limosella'
p3499
sS'Size'
p3500
S'3-5 cm'
p3501
sa(dp3502
S'Origin'
p3503
S'Everywhere'
p3504
sS'Substrate'
p3505
S'Rocky'
p3506
sS'Temperature'
p3507
S'20-28 &#xB0;C'
p3508
sS'dGH'
p3509
S'8-12'
p3510
sS'Photo URL'
p3511
S'http://www.aqua-fish.net/imgs/plants/061.jpg'
p3512
sS'Propagation'
p3513
S'Lateral shoots'
p3514
sS'Lighting'
p3515
S'Bright'
p3516
sS'Growth speed'
p3517
S'Normal'
p3518
sS'ph'
p3519
S'6.2-7.5'
p3520
sS'Place in the aquarium'
p3521
S'Foreground'
p3522
sS'Plant name'
p3523
S'Riccia fluitans'
p3524
sS'Size'
p3525
S'0-2 cm'
p3526
sa(dp3527
S'Origin'
p3528
S'Everywhere'
p3529
sS'Substrate'
p3530
S'Rocky'
p3531
sS'Temperature'
p3532
S'15-28 &#xB0;C'
p3533
sS'dGH'
p3534
S'0-12'
p3535
sS'Photo URL'
p3536
S'http://www.aqua-fish.net/imgs/plants/132.jpg'
p3537
sS'Propagation'
p3538
S'Lateral shoots'
p3539
sS'Lighting'
p3540
S'Bright'
p3541
sS'Growth speed'
p3542
S'Normal'
p3543
sS'ph'
p3544
S'6-7.5'
p3545
sS'Place in the aquarium'
p3546
S'Foreground'
p3547
sS'Plant name'
p3548
S'Riccia \xe2\x80\x9cDwarf\xe2\x80\x9d'
p3549
sS'Size'
p3550
S'1-5 cm'
p3551
sa(dp3552
S'Origin'
p3553
S'Sri Lanka'
p3554
sS'Substrate'
p3555
S'Fine gravel'
p3556
sS'Temperature'
p3557
S'22-26 &#xB0;C'
p3558
sS'dGH'
p3559
S'4-12'
p3560
sS'Photo URL'
p3561
S'http://www.aqua-fish.net/imgs/plants/056.jpg'
p3562
sS'Propagation'
p3563
S'Cuttings'
p3564
sS'Lighting'
p3565
S'Bright'
p3566
sS'Growth speed'
p3567
S'Fast'
p3568
sS'ph'
p3569
S'5.8-7.1'
p3570
sS'Place in the aquarium'
p3571
S'Background'
p3572
sS'Plant name'
p3573
S'Rotala indica'
p3574
sS'Size'
p3575
S'40-60 cm'
p3576
sa(dp3577
S'Origin'
p3578
S'Sri Lanka'
p3579
sS'Substrate'
p3580
S'Fine gravel'
p3581
sS'Temperature'
p3582
S'22-25 &#xB0;C'
p3583
sS'dGH'
p3584
S'4-12'
p3585
sS'Photo URL'
p3586
S'http://www.aqua-fish.net/imgs/plants/057.jpg'
p3587
sS'Propagation'
p3588
S'Cuttings'
p3589
sS'Lighting'
p3590
S'Bright'
p3591
sS'Growth speed'
p3592
S'Fast'
p3593
sS'ph'
p3594
S'6-6.9'
p3595
sS'Place in the aquarium'
p3596
S'Middle'
p3597
sS'Plant name'
p3598
S'Rotala macrandra'
p3599
sS'Size'
p3600
S'25-55 cm'
p3601
sa(dp3602
S'Origin'
p3603
S'South Asia'
p3604
sS'Substrate'
p3605
S'Fine gravel'
p3606
sS'Temperature'
p3607
S'23-27 &#xB0;C'
p3608
sS'dGH'
p3609
S'3-11'
p3610
sS'Photo URL'
p3611
S'http://www.aqua-fish.net/imgs/plants/rotala-nanjenshan-profile.jpg'
p3612
sS'Propagation'
p3613
S'Cuttings'
p3614
sS'Lighting'
p3615
S'Bright'
p3616
sS'Growth speed'
p3617
S'Normal'
p3618
sS'ph'
p3619
S'5.8-6.9'
p3620
sS'Place in the aquarium'
p3621
S'Middle'
p3622
sS'Plant name'
p3623
S'Rotala nanjenshan'
p3624
sS'Size'
p3625
S'15-25 cm'
p3626
sa(dp3627
S'Origin'
p3628
S'South Asia'
p3629
sS'Substrate'
p3630
S'Gravel'
p3631
sS'Temperature'
p3632
S'18-30 &#xB0;C'
p3633
sS'dGH'
p3634
S'4-18'
p3635
sS'Photo URL'
p3636
S'http://www.aqua-fish.net/imgs/plants/130.jpg'
p3637
sS'Propagation'
p3638
S'Runners'
p3639
sS'Lighting'
p3640
S'Bright'
p3641
sS'Growth speed'
p3642
S'Fast'
p3643
sS'ph'
p3644
S'5.8-7.9'
p3645
sS'Place in the aquarium'
p3646
S'Background'
p3647
sS'Plant name'
p3648
S'Rotala rotundifolia'
p3649
sS'Size'
p3650
S'40-60 cm'
p3651
sa(dp3652
S'Origin'
p3653
S'East Asia'
p3654
sS'Substrate'
p3655
S'Fine gravel'
p3656
sS'Temperature'
p3657
S'22-27 &#xB0;C'
p3658
sS'dGH'
p3659
S'4-12'
p3660
sS'Photo URL'
p3661
S'http://www.aqua-fish.net/imgs/plants/058.jpg'
p3662
sS'Propagation'
p3663
S'Cuttings'
p3664
sS'Lighting'
p3665
S'Bright'
p3666
sS'Growth speed'
p3667
S'Fast'
p3668
sS'ph'
p3669
S'6-6.9'
p3670
sS'Place in the aquarium'
p3671
S'Middle'
p3672
sS'Plant name'
p3673
S'Rotala wallichii'
p3674
sS'Size'
p3675
S'10-30 cm'
p3676
sa(dp3677
S'Origin'
p3678
S'North America'
p3679
sS'Substrate'
p3680
S'Fine gravel'
p3681
sS'Temperature'
p3682
S'18-25 &#xB0;C'
p3683
sS'dGH'
p3684
S'4-18'
p3685
sS'Photo URL'
p3686
S'http://www.aqua-fish.net/imgs/na.jpg'
p3687
sS'Propagation'
p3688
S'Runners'
p3689
sS'Lighting'
p3690
S'Medium'
p3691
sS'Growth speed'
p3692
S'Normal'
p3693
sS'ph'
p3694
S'6.5-7.6'
p3695
sS'Place in the aquarium'
p3696
S'Middle'
p3697
sS'Plant name'
p3698
S'Sagittaria grammeus'
p3699
sS'Size'
p3700
S'35-40 cm'
p3701
sa(dp3702
S'Origin'
p3703
S'North America'
p3704
sS'Substrate'
p3705
S'Gravel'
p3706
sS'Temperature'
p3707
S'19-26 &#xB0;C'
p3708
sS'dGH'
p3709
S'0-12'
p3710
sS'Photo URL'
p3711
S'http://www.aqua-fish.net/imgs/plants/131.jpg'
p3712
sS'Propagation'
p3713
S'Runners'
p3714
sS'Lighting'
p3715
S'Medium'
p3716
sS'Growth speed'
p3717
S'Normal'
p3718
sS'ph'
p3719
S'5.7-8'
p3720
sS'Place in the aquarium'
p3721
S'Middle'
p3722
sS'Plant name'
p3723
S'Sagittaria platyphylla'
p3724
sS'Size'
p3725
S'15-40 cm'
p3726
sa(dp3727
S'Origin'
p3728
S'North America'
p3729
sS'Substrate'
p3730
S'Fine gravel'
p3731
sS'Temperature'
p3732
S'20-26 &#xB0;C'
p3733
sS'dGH'
p3734
S'8-18'
p3735
sS'Photo URL'
p3736
S'http://www.aqua-fish.net/imgs/plants/sagittaria-subulata-profile.jpg'
p3737
sS'Propagation'
p3738
S'Runners'
p3739
sS'Lighting'
p3740
S'Medium'
p3741
sS'Growth speed'
p3742
S'Normal'
p3743
sS'ph'
p3744
S'6.5-8'
p3745
sS'Place in the aquarium'
p3746
S'Middle'
p3747
sS'Plant name'
p3748
S'Sagittaria subulata'
p3749
sS'Size'
p3750
S'30-40 cm'
p3751
sa(dp3752
S'Origin'
p3753
S'North America'
p3754
sS'Substrate'
p3755
S'Fine gravel'
p3756
sS'Temperature'
p3757
S'15-26 &#xB0;C'
p3758
sS'dGH'
p3759
S'4-30'
p3760
sS'Photo URL'
p3761
S'http://www.aqua-fish.net/imgs/plants/136.jpg'
p3762
sS'Propagation'
p3763
S'Rhizome'
p3764
sS'Lighting'
p3765
S'Bright'
p3766
sS'Growth speed'
p3767
S'Slow'
p3768
sS'ph'
p3769
S'6.5-8.5'
p3770
sS'Place in the aquarium'
p3771
S'Middle'
p3772
sS'Plant name'
p3773
S'Samolus valerandi'
p3774
sS'Size'
p3775
S'6-12 cm'
p3776
sa(dp3777
S'Origin'
p3778
S'North America'
p3779
sS'Substrate'
p3780
S'Gravel'
p3781
sS'Temperature'
p3782
S'18-23 &#xB0;C'
p3783
sS'dGH'
p3784
S'4-12'
p3785
sS'Photo URL'
p3786
S'http://www.aqua-fish.net/imgs/plants/028.jpg'
p3787
sS'Propagation'
p3788
S'Cuttings'
p3789
sS'Lighting'
p3790
S'Bright'
p3791
sS'Growth speed'
p3792
S'Slow'
p3793
sS'ph'
p3794
S'6.7-7.2'
p3795
sS'Place in the aquarium'
p3796
S'Middle'
p3797
sS'Plant name'
p3798
S'Saururus cernuus'
p3799
sS'Size'
p3800
S'5-30 cm'
p3801
sa(dp3802
S'Origin'
p3803
S'Central America'
p3804
sS'Substrate'
p3805
S'Gravel'
p3806
sS'Temperature'
p3807
S'18-30 &#xB0;C'
p3808
sS'dGH'
p3809
S'4-18'
p3810
sS'Photo URL'
p3811
S'http://www.aqua-fish.net/imgs/plants/135.jpg'
p3812
sS'Propagation'
p3813
S'Cuttings'
p3814
sS'Lighting'
p3815
S'Bright'
p3816
sS'Growth speed'
p3817
S'Fast'
p3818
sS'ph'
p3819
S'5.5-8'
p3820
sS'Place in the aquarium'
p3821
S'Background'
p3822
sS'Plant name'
p3823
S'Shinnersia rivularis'
p3824
sS'Size'
p3825
S'40-60 cm'
p3826
sa(dp3827
S'Origin'
p3828
S'South America'
p3829
sS'Substrate'
p3830
S'Gravel'
p3831
sS'Temperature'
p3832
S'22-28 &#xB0;C'
p3833
sS'dGH'
p3834
S'4-12'
p3835
sS'Photo URL'
p3836
S'http://www.aqua-fish.net/imgs/plants/062.jpg'
p3837
sS'Propagation'
p3838
S'Cuttings'
p3839
sS'Lighting'
p3840
S'Medium'
p3841
sS'Growth speed'
p3842
S'Slow'
p3843
sS'ph'
p3844
S'6-7.2'
p3845
sS'Place in the aquarium'
p3846
S'Middle'
p3847
sS'Plant name'
p3848
S'Spathiphyllum petite'
p3849
sS'Size'
p3850
S'20-30 cm'
p3851
sa(dp3852
S'Origin'
p3853
S'South America'
p3854
sS'Substrate'
p3855
S'Gravel'
p3856
sS'Temperature'
p3857
S'22-25 &#xB0;C'
p3858
sS'dGH'
p3859
S'4-12'
p3860
sS'Photo URL'
p3861
S'http://www.aqua-fish.net/imgs/plants/134.jpg'
p3862
sS'Propagation'
p3863
S'Cuttings'
p3864
sS'Lighting'
p3865
S'Medium'
p3866
sS'Growth speed'
p3867
S'Slow'
p3868
sS'ph'
p3869
S'5-7'
p3870
sS'Place in the aquarium'
p3871
S'Middle'
p3872
sS'Plant name'
p3873
S'Spathiphyllum wallisii'
p3874
sS'Size'
p3875
S'20-30 cm'
p3876
sa(dp3877
S'Origin'
p3878
S'South Asia'
p3879
sS'Substrate'
p3880
S'Gravel'
p3881
sS'Temperature'
p3882
S'20-27 &#xB0;C'
p3883
sS'dGH'
p3884
S'4-18'
p3885
sS'Photo URL'
p3886
S'http://www.aqua-fish.net/imgs/plants/088.jpg'
p3887
sS'Propagation'
p3888
S'Cuttings'
p3889
sS'Lighting'
p3890
S'Bright'
p3891
sS'Growth speed'
p3892
S'Fast'
p3893
sS'ph'
p3894
S'6.5-7.5'
p3895
sS'Place in the aquarium'
p3896
S'Background'
p3897
sS'Plant name'
p3898
S'Synnema triflorum'
p3899
sS'Size'
p3900
S'30-45 cm'
p3901
sa(dp3902
S'Origin'
p3903
S'South America'
p3904
sS'Substrate'
p3905
S'Fine gravel'
p3906
sS'Temperature'
p3907
S'22-26 &#xB0;C'
p3908
sS'dGH'
p3909
S'5-14'
p3910
sS'Photo URL'
p3911
S'http://www.aqua-fish.net/imgs/plants/telanthera-lilacina-profile.jpg'
p3912
sS'Propagation'
p3913
S'Cuttings'
p3914
sS'Lighting'
p3915
S'Bright'
p3916
sS'Growth speed'
p3917
S'Normal'
p3918
sS'ph'
p3919
S'6.4-7.1'
p3920
sS'Place in the aquarium'
p3921
S'Background'
p3922
sS'Plant name'
p3923
S'Telanthera lilacina'
p3924
sS'Size'
p3925
S'27-41 cm'
p3926
sa(dp3927
S'Origin'
p3928
S'South America'
p3929
sS'Substrate'
p3930
S'Fine gravel'
p3931
sS'Temperature'
p3932
S'20-30 &#xB0;C'
p3933
sS'dGH'
p3934
S'0-12'
p3935
sS'Photo URL'
p3936
S'http://www.aqua-fish.net/imgs/plants/133.jpg'
p3937
sS'Propagation'
p3938
S'Cuttings'
p3939
sS'Lighting'
p3940
S'Medium'
p3941
sS'Growth speed'
p3942
S'Normal'
p3943
sS'ph'
p3944
S'5-7.5'
p3945
sS'Place in the aquarium'
p3946
S'Background'
p3947
sS'Plant name'
p3948
S'Tonina fluviatilis'
p3949
sS'Size'
p3950
S'5-35 cm'
p3951
sa(dp3952
S'Origin'
p3953
S'South Asia'
p3954
sS'Substrate'
p3955
S'Fine gravel'
p3956
sS'Temperature'
p3957
S'20-27 &#xB0;C'
p3958
sS'dGH'
p3959
S'4-18'
p3960
sS'Photo URL'
p3961
S'http://www.aqua-fish.net/imgs/plants/006.jpg'
p3962
sS'Propagation'
p3963
S'Runners'
p3964
sS'Lighting'
p3965
S'Bright'
p3966
sS'Growth speed'
p3967
S'Fast'
p3968
sS'ph'
p3969
S'6.5-7.6'
p3970
sS'Place in the aquarium'
p3971
S'Background'
p3972
sS'Plant name'
p3973
S'Vallisneria asiatica'
p3974
sS'Size'
p3975
S'30-35 cm'
p3976
sa(dp3977
S'Origin'
p3978
S'South Asia'
p3979
sS'Substrate'
p3980
S'Fine gravel'
p3981
sS'Temperature'
p3982
S'20-26 &#xB0;C'
p3983
sS'dGH'
p3984
S'4-18'
p3985
sS'Photo URL'
p3986
S'http://www.aqua-fish.net/imgs/plants/001.jpg'
p3987
sS'Propagation'
p3988
S'Runners'
p3989
sS'Lighting'
p3990
S'Medium'
p3991
sS'Growth speed'
p3992
S'Fast'
p3993
sS'ph'
p3994
S'6.5-8'
p3995
sS'Place in the aquarium'
p3996
S'Background'
p3997
sS'Plant name'
p3998
S'Vallisneria contortionist'
p3999
sS'Size'
p4000
S'40-60 cm'
p4001
sa(dp4002
S'Origin'
p4003
S'Oceania'
p4004
sS'Substrate'
p4005
S'Gravel'
p4006
sS'Temperature'
p4007
S'22-28 &#xB0;C'
p4008
sS'dGH'
p4009
S'4-18'
p4010
sS'Photo URL'
p4011
S'http://www.aqua-fish.net/imgs/plants/vallisneria-gigantea.jpg'
p4012
sS'Propagation'
p4013
S'Runners'
p4014
sS'Lighting'
p4015
S'Medium'
p4016
sS'Growth speed'
p4017
S'Fast'
p4018
sS'ph'
p4019
S'6.5-7.3'
p4020
sS'Place in the aquarium'
p4021
S'Background'
p4022
sS'Plant name'
p4023
S'Vallisneria gigantea'
p4024
sS'Size'
p4025
S'50-200 cm'
p4026
sa(dp4027
S'Origin'
p4028
S'South Asia'
p4029
sS'Substrate'
p4030
S'Sand'
p4031
sS'Temperature'
p4032
S'20-27 &#xB0;C'
p4033
sS'dGH'
p4034
S'8-18'
p4035
sS'Photo URL'
p4036
S'http://www.aqua-fish.net/imgs/plants/005.jpg'
p4037
sS'Propagation'
p4038
S'Runners'
p4039
sS'Lighting'
p4040
S'Bright'
p4041
sS'Growth speed'
p4042
S'Fast'
p4043
sS'ph'
p4044
S'6.5-8'
p4045
sS'Place in the aquarium'
p4046
S'Background'
p4047
sS'Plant name'
p4048
S'Vallisneria rubra'
p4049
sS'Size'
p4050
S'40-60 cm'
p4051
sa(dp4052
S'Origin'
p4053
S'Europe'
p4054
sS'Substrate'
p4055
S'Fine gravel'
p4056
sS'Temperature'
p4057
S'22-28 &#xB0;C'
p4058
sS'dGH'
p4059
S'4-18'
p4060
sS'Photo URL'
p4061
S'http://www.aqua-fish.net/imgs/plants/vallisneria-spiralis.jpg'
p4062
sS'Propagation'
p4063
S'Runners'
p4064
sS'Lighting'
p4065
S'Medium'
p4066
sS'Growth speed'
p4067
S'Fast'
p4068
sS'ph'
p4069
S'6.5-7.6'
p4070
sS'Place in the aquarium'
p4071
S'Background'
p4072
sS'Plant name'
p4073
S'Vallisneria spiralis (Italian)'
p4074
sS'Size'
p4075
S'30-55 cm'
p4076
sa(dp4077
S'Origin'
p4078
S'South Asia'
p4079
sS'Substrate'
p4080
S'Fine gravel'
p4081
sS'Temperature'
p4082
S'22-27 &#xB0;C'
p4083
sS'dGH'
p4084
S'4-18'
p4085
sS'Photo URL'
p4086
S'http://www.aqua-fish.net/imgs/plants/003.jpg'
p4087
sS'Propagation'
p4088
S'Runners'
p4089
sS'Lighting'
p4090
S'Bright'
p4091
sS'Growth speed'
p4092
S'Fast'
p4093
sS'ph'
p4094
S'6.5-8'
p4095
sS'Place in the aquarium'
p4096
S'Background'
p4097
sS'Plant name'
p4098
S'Vallisneria torta'
p4099
sS'Size'
p4100
S'30-45 cm'
p4101
sa(dp4102
S'Origin'
p4103
S'South Asia'
p4104
sS'Substrate'
p4105
S'Rocky'
p4106
sS'Temperature'
p4107
S'21-27 &#xB0;C'
p4108
sS'dGH'
p4109
S'4-30'
p4110
sS'Photo URL'
p4111
S'http://www.aqua-fish.net/imgs/plants/vesicularia-dubyana.jpg'
p4112
sS'Propagation'
p4113
S'Divisions'
p4114
sS'Lighting'
p4115
S'Bright'
p4116
sS'Growth speed'
p4117
S'Slow'
p4118
sS'ph'
p4119
S'6.5-7.2'
p4120
sS'Place in the aquarium'
p4121
S'Foreground'
p4122
sS'Plant name'
p4123
S'Vesicularia dubyana'
p4124
sS'Size'
p4125
S'0-5 cm'
p4126
sa(dp4127
S'Origin'
p4128
S'North America'
p4129
sS'Substrate'
p4130
S'Fine gravel'
p4131
sS'Temperature'
p4132
S'15-28 &#xB0;C'
p4133
sS'dGH'
p4134
S'0-18'
p4135
sS'Photo URL'
p4136
S'http://www.aqua-fish.net/imgs/plants/117.jpg'
p4137
sS'Propagation'
p4138
S'Lateral shoots'
p4139
sS'Lighting'
p4140
S'Medium'
p4141
sS'Growth speed'
p4142
S'Fast'
p4143
sS'ph'
p4144
S'5.7-7.8'
p4145
sS'Place in the aquarium'
p4146
S'Background'
p4147
sS'Plant name'
p4148
S'Zosterella dubia'
p4149
sS'Size'
p4150
S'15-50 cm'
p4151
sa.